
kernel/kernel:     file format elf64-littleriscv


Disassembly of section .text:

0000000080000000 <_entry>:
    80000000:	0000a117          	auipc	sp,0xa
    80000004:	83010113          	add	sp,sp,-2000 # 80009830 <stack0>
    80000008:	6505                	lui	a0,0x1
    8000000a:	f14025f3          	csrr	a1,mhartid
    8000000e:	0585                	add	a1,a1,1
    80000010:	02b50533          	mul	a0,a0,a1
    80000014:	912a                	add	sp,sp,a0
    80000016:	070000ef          	jal	80000086 <start>

000000008000001a <spin>:
    8000001a:	a001                	j	8000001a <spin>

000000008000001c <timerinit>:
// which arrive at timervec in kernelvec.S,
// which turns them into software interrupts for
// devintr() in trap.c.
void
timerinit()
{
    8000001c:	1141                	add	sp,sp,-16
    8000001e:	e422                	sd	s0,8(sp)
    80000020:	0800                	add	s0,sp,16
// which hart (core) is this?
static inline uint64
r_mhartid()
{
  uint64 x;
  asm volatile("csrr %0, mhartid" : "=r" (x) );
    80000022:	f14027f3          	csrr	a5,mhartid
  // each CPU has a separate source of timer interrupts.
  int id = r_mhartid();

  // ask the CLINT for a timer interrupt.
  int interval = 1000000; // cycles; about 1/10th second in qemu.
  *(uint64*)CLINT_MTIMECMP(id) = *(uint64*)CLINT_MTIME + interval;
    80000026:	0037969b          	sllw	a3,a5,0x3
    8000002a:	02004737          	lui	a4,0x2004
    8000002e:	96ba                	add	a3,a3,a4
    80000030:	0200c737          	lui	a4,0x200c
    80000034:	ff873603          	ld	a2,-8(a4) # 200bff8 <_entry-0x7dff4008>
    80000038:	000f4737          	lui	a4,0xf4
    8000003c:	24070713          	add	a4,a4,576 # f4240 <_entry-0x7ff0bdc0>
    80000040:	963a                	add	a2,a2,a4
    80000042:	e290                	sd	a2,0(a3)

  // prepare information in scratch[] for timervec.
  // scratch[0..3] : space for timervec to save registers.
  // scratch[4] : address of CLINT MTIMECMP register.
  // scratch[5] : desired interval (in cycles) between timer interrupts.
  uint64 *scratch = &mscratch0[32 * id];
    80000044:	0057979b          	sllw	a5,a5,0x5
    80000048:	078e                	sll	a5,a5,0x3
    8000004a:	00009617          	auipc	a2,0x9
    8000004e:	fe660613          	add	a2,a2,-26 # 80009030 <mscratch0>
    80000052:	97b2                	add	a5,a5,a2
  scratch[4] = CLINT_MTIMECMP(id);
    80000054:	f394                	sd	a3,32(a5)
  scratch[5] = interval;
    80000056:	f798                	sd	a4,40(a5)
}

static inline void 
w_mscratch(uint64 x)
{
  asm volatile("csrw mscratch, %0" : : "r" (x));
    80000058:	34079073          	csrw	mscratch,a5
  asm volatile("csrw mtvec, %0" : : "r" (x));
    8000005c:	00006797          	auipc	a5,0x6
    80000060:	df478793          	add	a5,a5,-524 # 80005e50 <timervec>
    80000064:	30579073          	csrw	mtvec,a5
  asm volatile("csrr %0, mstatus" : "=r" (x) );
    80000068:	300027f3          	csrr	a5,mstatus

  // set the machine-mode trap handler.
  w_mtvec((uint64)timervec);

  // enable machine-mode interrupts.
  w_mstatus(r_mstatus() | MSTATUS_MIE);
    8000006c:	0087e793          	or	a5,a5,8
  asm volatile("csrw mstatus, %0" : : "r" (x));
    80000070:	30079073          	csrw	mstatus,a5
  asm volatile("csrr %0, mie" : "=r" (x) );
    80000074:	304027f3          	csrr	a5,mie

  // enable machine-mode timer interrupts.
  w_mie(r_mie() | MIE_MTIE);
    80000078:	0807e793          	or	a5,a5,128
  asm volatile("csrw mie, %0" : : "r" (x));
    8000007c:	30479073          	csrw	mie,a5
}
    80000080:	6422                	ld	s0,8(sp)
    80000082:	0141                	add	sp,sp,16
    80000084:	8082                	ret

0000000080000086 <start>:
{
    80000086:	1141                	add	sp,sp,-16
    80000088:	e406                	sd	ra,8(sp)
    8000008a:	e022                	sd	s0,0(sp)
    8000008c:	0800                	add	s0,sp,16
  asm volatile("csrr %0, mstatus" : "=r" (x) );
    8000008e:	300027f3          	csrr	a5,mstatus
  x &= ~MSTATUS_MPP_MASK;
    80000092:	7779                	lui	a4,0xffffe
    80000094:	7ff70713          	add	a4,a4,2047 # ffffffffffffe7ff <end+0xffffffff7ffd77df>
    80000098:	8ff9                	and	a5,a5,a4
  x |= MSTATUS_MPP_S;
    8000009a:	6705                	lui	a4,0x1
    8000009c:	80070713          	add	a4,a4,-2048 # 800 <_entry-0x7ffff800>
    800000a0:	8fd9                	or	a5,a5,a4
  asm volatile("csrw mstatus, %0" : : "r" (x));
    800000a2:	30079073          	csrw	mstatus,a5
  asm volatile("csrw mepc, %0" : : "r" (x));
    800000a6:	00001797          	auipc	a5,0x1
    800000aa:	dfe78793          	add	a5,a5,-514 # 80000ea4 <main>
    800000ae:	34179073          	csrw	mepc,a5
  asm volatile("csrw satp, %0" : : "r" (x));
    800000b2:	4781                	li	a5,0
    800000b4:	18079073          	csrw	satp,a5
  asm volatile("csrw medeleg, %0" : : "r" (x));
    800000b8:	67c1                	lui	a5,0x10
    800000ba:	17fd                	add	a5,a5,-1 # ffff <_entry-0x7fff0001>
    800000bc:	30279073          	csrw	medeleg,a5
  asm volatile("csrw mideleg, %0" : : "r" (x));
    800000c0:	30379073          	csrw	mideleg,a5
  asm volatile("csrr %0, sie" : "=r" (x) );
    800000c4:	104027f3          	csrr	a5,sie
  w_sie(r_sie() | SIE_SEIE | SIE_STIE | SIE_SSIE);
    800000c8:	2227e793          	or	a5,a5,546
  asm volatile("csrw sie, %0" : : "r" (x));
    800000cc:	10479073          	csrw	sie,a5
  timerinit();
    800000d0:	00000097          	auipc	ra,0x0
    800000d4:	f4c080e7          	jalr	-180(ra) # 8000001c <timerinit>
  asm volatile("csrr %0, mhartid" : "=r" (x) );
    800000d8:	f14027f3          	csrr	a5,mhartid
  w_tp(id);
    800000dc:	2781                	sext.w	a5,a5
}

static inline void 
w_tp(uint64 x)
{
  asm volatile("mv tp, %0" : : "r" (x));
    800000de:	823e                	mv	tp,a5
  asm volatile("mret");
    800000e0:	30200073          	mret
}
    800000e4:	60a2                	ld	ra,8(sp)
    800000e6:	6402                	ld	s0,0(sp)
    800000e8:	0141                	add	sp,sp,16
    800000ea:	8082                	ret

00000000800000ec <consolewrite>:
//
// user write()s to the console go here.
//
int
consolewrite(int user_src, uint64 src, int n)
{
    800000ec:	715d                	add	sp,sp,-80
    800000ee:	e486                	sd	ra,72(sp)
    800000f0:	e0a2                	sd	s0,64(sp)
    800000f2:	fc26                	sd	s1,56(sp)
    800000f4:	f84a                	sd	s2,48(sp)
    800000f6:	f44e                	sd	s3,40(sp)
    800000f8:	f052                	sd	s4,32(sp)
    800000fa:	ec56                	sd	s5,24(sp)
    800000fc:	0880                	add	s0,sp,80
    800000fe:	8a2a                	mv	s4,a0
    80000100:	84ae                	mv	s1,a1
    80000102:	89b2                	mv	s3,a2
  int i;

  acquire(&cons.lock);
    80000104:	00011517          	auipc	a0,0x11
    80000108:	72c50513          	add	a0,a0,1836 # 80011830 <cons>
    8000010c:	00001097          	auipc	ra,0x1
    80000110:	af0080e7          	jalr	-1296(ra) # 80000bfc <acquire>
  for(i = 0; i < n; i++){
    80000114:	05305c63          	blez	s3,8000016c <consolewrite+0x80>
    80000118:	4901                	li	s2,0
    char c;
    if(either_copyin(&c, user_src, src+i, 1) == -1)
    8000011a:	5afd                	li	s5,-1
    8000011c:	4685                	li	a3,1
    8000011e:	8626                	mv	a2,s1
    80000120:	85d2                	mv	a1,s4
    80000122:	fbf40513          	add	a0,s0,-65
    80000126:	00002097          	auipc	ra,0x2
    8000012a:	63e080e7          	jalr	1598(ra) # 80002764 <either_copyin>
    8000012e:	01550d63          	beq	a0,s5,80000148 <consolewrite+0x5c>
      break;
    uartputc(c);
    80000132:	fbf44503          	lbu	a0,-65(s0)
    80000136:	00000097          	auipc	ra,0x0
    8000013a:	796080e7          	jalr	1942(ra) # 800008cc <uartputc>
  for(i = 0; i < n; i++){
    8000013e:	2905                	addw	s2,s2,1
    80000140:	0485                	add	s1,s1,1
    80000142:	fd299de3          	bne	s3,s2,8000011c <consolewrite+0x30>
    80000146:	894e                	mv	s2,s3
  }
  release(&cons.lock);
    80000148:	00011517          	auipc	a0,0x11
    8000014c:	6e850513          	add	a0,a0,1768 # 80011830 <cons>
    80000150:	00001097          	auipc	ra,0x1
    80000154:	b60080e7          	jalr	-1184(ra) # 80000cb0 <release>

  return i;
}
    80000158:	854a                	mv	a0,s2
    8000015a:	60a6                	ld	ra,72(sp)
    8000015c:	6406                	ld	s0,64(sp)
    8000015e:	74e2                	ld	s1,56(sp)
    80000160:	7942                	ld	s2,48(sp)
    80000162:	79a2                	ld	s3,40(sp)
    80000164:	7a02                	ld	s4,32(sp)
    80000166:	6ae2                	ld	s5,24(sp)
    80000168:	6161                	add	sp,sp,80
    8000016a:	8082                	ret
  for(i = 0; i < n; i++){
    8000016c:	4901                	li	s2,0
    8000016e:	bfe9                	j	80000148 <consolewrite+0x5c>

0000000080000170 <consoleread>:
// user_dist indicates whether dst is a user
// or kernel address.
//
int
consoleread(int user_dst, uint64 dst, int n)
{
    80000170:	711d                	add	sp,sp,-96
    80000172:	ec86                	sd	ra,88(sp)
    80000174:	e8a2                	sd	s0,80(sp)
    80000176:	e4a6                	sd	s1,72(sp)
    80000178:	e0ca                	sd	s2,64(sp)
    8000017a:	fc4e                	sd	s3,56(sp)
    8000017c:	f852                	sd	s4,48(sp)
    8000017e:	f456                	sd	s5,40(sp)
    80000180:	f05a                	sd	s6,32(sp)
    80000182:	ec5e                	sd	s7,24(sp)
    80000184:	1080                	add	s0,sp,96
    80000186:	8aaa                	mv	s5,a0
    80000188:	8a2e                	mv	s4,a1
    8000018a:	89b2                	mv	s3,a2
  uint target;
  int c;
  char cbuf;

  target = n;
    8000018c:	00060b1b          	sext.w	s6,a2
  acquire(&cons.lock);
    80000190:	00011517          	auipc	a0,0x11
    80000194:	6a050513          	add	a0,a0,1696 # 80011830 <cons>
    80000198:	00001097          	auipc	ra,0x1
    8000019c:	a64080e7          	jalr	-1436(ra) # 80000bfc <acquire>
  while(n > 0){
    // wait until interrupt handler has put some
    // input into cons.buffer.
    while(cons.r == cons.w){
    800001a0:	00011497          	auipc	s1,0x11
    800001a4:	69048493          	add	s1,s1,1680 # 80011830 <cons>
      if(myproc()->killed){
        release(&cons.lock);
        return -1;
      }
      sleep(&cons.r, &cons.lock);
    800001a8:	00011917          	auipc	s2,0x11
    800001ac:	72090913          	add	s2,s2,1824 # 800118c8 <cons+0x98>
  while(n > 0){
    800001b0:	07305f63          	blez	s3,8000022e <consoleread+0xbe>
    while(cons.r == cons.w){
    800001b4:	0984a783          	lw	a5,152(s1)
    800001b8:	09c4a703          	lw	a4,156(s1)
    800001bc:	02f71463          	bne	a4,a5,800001e4 <consoleread+0x74>
      if(myproc()->killed){
    800001c0:	00002097          	auipc	ra,0x2
    800001c4:	878080e7          	jalr	-1928(ra) # 80001a38 <myproc>
    800001c8:	591c                	lw	a5,48(a0)
    800001ca:	efad                	bnez	a5,80000244 <consoleread+0xd4>
      sleep(&cons.r, &cons.lock);
    800001cc:	85a6                	mv	a1,s1
    800001ce:	854a                	mv	a0,s2
    800001d0:	00002097          	auipc	ra,0x2
    800001d4:	2e4080e7          	jalr	740(ra) # 800024b4 <sleep>
    while(cons.r == cons.w){
    800001d8:	0984a783          	lw	a5,152(s1)
    800001dc:	09c4a703          	lw	a4,156(s1)
    800001e0:	fef700e3          	beq	a4,a5,800001c0 <consoleread+0x50>
    }

    c = cons.buf[cons.r++ % INPUT_BUF];
    800001e4:	00011717          	auipc	a4,0x11
    800001e8:	64c70713          	add	a4,a4,1612 # 80011830 <cons>
    800001ec:	0017869b          	addw	a3,a5,1
    800001f0:	08d72c23          	sw	a3,152(a4)
    800001f4:	07f7f693          	and	a3,a5,127
    800001f8:	9736                	add	a4,a4,a3
    800001fa:	01874703          	lbu	a4,24(a4)
    800001fe:	00070b9b          	sext.w	s7,a4

    if(c == C('D')){  // end-of-file
    80000202:	4691                	li	a3,4
    80000204:	06db8463          	beq	s7,a3,8000026c <consoleread+0xfc>
      }
      break;
    }

    // copy the input byte to the user-space buffer.
    cbuf = c;
    80000208:	fae407a3          	sb	a4,-81(s0)
    if(either_copyout(user_dst, dst, &cbuf, 1) == -1)
    8000020c:	4685                	li	a3,1
    8000020e:	faf40613          	add	a2,s0,-81
    80000212:	85d2                	mv	a1,s4
    80000214:	8556                	mv	a0,s5
    80000216:	00002097          	auipc	ra,0x2
    8000021a:	4f8080e7          	jalr	1272(ra) # 8000270e <either_copyout>
    8000021e:	57fd                	li	a5,-1
    80000220:	00f50763          	beq	a0,a5,8000022e <consoleread+0xbe>
      break;

    dst++;
    80000224:	0a05                	add	s4,s4,1
    --n;
    80000226:	39fd                	addw	s3,s3,-1

    if(c == '\n'){
    80000228:	47a9                	li	a5,10
    8000022a:	f8fb93e3          	bne	s7,a5,800001b0 <consoleread+0x40>
      // a whole line has arrived, return to
      // the user-level read().
      break;
    }
  }
  release(&cons.lock);
    8000022e:	00011517          	auipc	a0,0x11
    80000232:	60250513          	add	a0,a0,1538 # 80011830 <cons>
    80000236:	00001097          	auipc	ra,0x1
    8000023a:	a7a080e7          	jalr	-1414(ra) # 80000cb0 <release>

  return target - n;
    8000023e:	413b053b          	subw	a0,s6,s3
    80000242:	a811                	j	80000256 <consoleread+0xe6>
        release(&cons.lock);
    80000244:	00011517          	auipc	a0,0x11
    80000248:	5ec50513          	add	a0,a0,1516 # 80011830 <cons>
    8000024c:	00001097          	auipc	ra,0x1
    80000250:	a64080e7          	jalr	-1436(ra) # 80000cb0 <release>
        return -1;
    80000254:	557d                	li	a0,-1
}
    80000256:	60e6                	ld	ra,88(sp)
    80000258:	6446                	ld	s0,80(sp)
    8000025a:	64a6                	ld	s1,72(sp)
    8000025c:	6906                	ld	s2,64(sp)
    8000025e:	79e2                	ld	s3,56(sp)
    80000260:	7a42                	ld	s4,48(sp)
    80000262:	7aa2                	ld	s5,40(sp)
    80000264:	7b02                	ld	s6,32(sp)
    80000266:	6be2                	ld	s7,24(sp)
    80000268:	6125                	add	sp,sp,96
    8000026a:	8082                	ret
      if(n < target){
    8000026c:	0009871b          	sext.w	a4,s3
    80000270:	fb677fe3          	bgeu	a4,s6,8000022e <consoleread+0xbe>
        cons.r--;
    80000274:	00011717          	auipc	a4,0x11
    80000278:	64f72a23          	sw	a5,1620(a4) # 800118c8 <cons+0x98>
    8000027c:	bf4d                	j	8000022e <consoleread+0xbe>

000000008000027e <consputc>:
{
    8000027e:	1141                	add	sp,sp,-16
    80000280:	e406                	sd	ra,8(sp)
    80000282:	e022                	sd	s0,0(sp)
    80000284:	0800                	add	s0,sp,16
  if(c == BACKSPACE){
    80000286:	10000793          	li	a5,256
    8000028a:	00f50a63          	beq	a0,a5,8000029e <consputc+0x20>
    uartputc_sync(c);
    8000028e:	00000097          	auipc	ra,0x0
    80000292:	560080e7          	jalr	1376(ra) # 800007ee <uartputc_sync>
}
    80000296:	60a2                	ld	ra,8(sp)
    80000298:	6402                	ld	s0,0(sp)
    8000029a:	0141                	add	sp,sp,16
    8000029c:	8082                	ret
    uartputc_sync('\b'); uartputc_sync(' '); uartputc_sync('\b');
    8000029e:	4521                	li	a0,8
    800002a0:	00000097          	auipc	ra,0x0
    800002a4:	54e080e7          	jalr	1358(ra) # 800007ee <uartputc_sync>
    800002a8:	02000513          	li	a0,32
    800002ac:	00000097          	auipc	ra,0x0
    800002b0:	542080e7          	jalr	1346(ra) # 800007ee <uartputc_sync>
    800002b4:	4521                	li	a0,8
    800002b6:	00000097          	auipc	ra,0x0
    800002ba:	538080e7          	jalr	1336(ra) # 800007ee <uartputc_sync>
    800002be:	bfe1                	j	80000296 <consputc+0x18>

00000000800002c0 <consoleintr>:
// do erase/kill processing, append to cons.buf,
// wake up consoleread() if a whole line has arrived.
//
void
consoleintr(int c)
{
    800002c0:	1101                	add	sp,sp,-32
    800002c2:	ec06                	sd	ra,24(sp)
    800002c4:	e822                	sd	s0,16(sp)
    800002c6:	e426                	sd	s1,8(sp)
    800002c8:	e04a                	sd	s2,0(sp)
    800002ca:	1000                	add	s0,sp,32
    800002cc:	84aa                	mv	s1,a0
  acquire(&cons.lock);
    800002ce:	00011517          	auipc	a0,0x11
    800002d2:	56250513          	add	a0,a0,1378 # 80011830 <cons>
    800002d6:	00001097          	auipc	ra,0x1
    800002da:	926080e7          	jalr	-1754(ra) # 80000bfc <acquire>

  switch(c){
    800002de:	47d5                	li	a5,21
    800002e0:	0af48663          	beq	s1,a5,8000038c <consoleintr+0xcc>
    800002e4:	0297ca63          	blt	a5,s1,80000318 <consoleintr+0x58>
    800002e8:	47a1                	li	a5,8
    800002ea:	0ef48763          	beq	s1,a5,800003d8 <consoleintr+0x118>
    800002ee:	47c1                	li	a5,16
    800002f0:	10f49a63          	bne	s1,a5,80000404 <consoleintr+0x144>
  case C('P'):  // Print process list.
    procdump();
    800002f4:	00002097          	auipc	ra,0x2
    800002f8:	4c6080e7          	jalr	1222(ra) # 800027ba <procdump>
      }
    }
    break;
  }
  
  release(&cons.lock);
    800002fc:	00011517          	auipc	a0,0x11
    80000300:	53450513          	add	a0,a0,1332 # 80011830 <cons>
    80000304:	00001097          	auipc	ra,0x1
    80000308:	9ac080e7          	jalr	-1620(ra) # 80000cb0 <release>
}
    8000030c:	60e2                	ld	ra,24(sp)
    8000030e:	6442                	ld	s0,16(sp)
    80000310:	64a2                	ld	s1,8(sp)
    80000312:	6902                	ld	s2,0(sp)
    80000314:	6105                	add	sp,sp,32
    80000316:	8082                	ret
  switch(c){
    80000318:	07f00793          	li	a5,127
    8000031c:	0af48e63          	beq	s1,a5,800003d8 <consoleintr+0x118>
    if(c != 0 && cons.e-cons.r < INPUT_BUF){
    80000320:	00011717          	auipc	a4,0x11
    80000324:	51070713          	add	a4,a4,1296 # 80011830 <cons>
    80000328:	0a072783          	lw	a5,160(a4)
    8000032c:	09872703          	lw	a4,152(a4)
    80000330:	9f99                	subw	a5,a5,a4
    80000332:	07f00713          	li	a4,127
    80000336:	fcf763e3          	bltu	a4,a5,800002fc <consoleintr+0x3c>
      c = (c == '\r') ? '\n' : c;
    8000033a:	47b5                	li	a5,13
    8000033c:	0cf48763          	beq	s1,a5,8000040a <consoleintr+0x14a>
      consputc(c);
    80000340:	8526                	mv	a0,s1
    80000342:	00000097          	auipc	ra,0x0
    80000346:	f3c080e7          	jalr	-196(ra) # 8000027e <consputc>
      cons.buf[cons.e++ % INPUT_BUF] = c;
    8000034a:	00011797          	auipc	a5,0x11
    8000034e:	4e678793          	add	a5,a5,1254 # 80011830 <cons>
    80000352:	0a07a703          	lw	a4,160(a5)
    80000356:	0017069b          	addw	a3,a4,1
    8000035a:	0006861b          	sext.w	a2,a3
    8000035e:	0ad7a023          	sw	a3,160(a5)
    80000362:	07f77713          	and	a4,a4,127
    80000366:	97ba                	add	a5,a5,a4
    80000368:	00978c23          	sb	s1,24(a5)
      if(c == '\n' || c == C('D') || cons.e == cons.r+INPUT_BUF){
    8000036c:	47a9                	li	a5,10
    8000036e:	0cf48563          	beq	s1,a5,80000438 <consoleintr+0x178>
    80000372:	4791                	li	a5,4
    80000374:	0cf48263          	beq	s1,a5,80000438 <consoleintr+0x178>
    80000378:	00011797          	auipc	a5,0x11
    8000037c:	5507a783          	lw	a5,1360(a5) # 800118c8 <cons+0x98>
    80000380:	0807879b          	addw	a5,a5,128
    80000384:	f6f61ce3          	bne	a2,a5,800002fc <consoleintr+0x3c>
      cons.buf[cons.e++ % INPUT_BUF] = c;
    80000388:	863e                	mv	a2,a5
    8000038a:	a07d                	j	80000438 <consoleintr+0x178>
    while(cons.e != cons.w &&
    8000038c:	00011717          	auipc	a4,0x11
    80000390:	4a470713          	add	a4,a4,1188 # 80011830 <cons>
    80000394:	0a072783          	lw	a5,160(a4)
    80000398:	09c72703          	lw	a4,156(a4)
          cons.buf[(cons.e-1) % INPUT_BUF] != '\n'){
    8000039c:	00011497          	auipc	s1,0x11
    800003a0:	49448493          	add	s1,s1,1172 # 80011830 <cons>
    while(cons.e != cons.w &&
    800003a4:	4929                	li	s2,10
    800003a6:	f4f70be3          	beq	a4,a5,800002fc <consoleintr+0x3c>
          cons.buf[(cons.e-1) % INPUT_BUF] != '\n'){
    800003aa:	37fd                	addw	a5,a5,-1
    800003ac:	07f7f713          	and	a4,a5,127
    800003b0:	9726                	add	a4,a4,s1
    while(cons.e != cons.w &&
    800003b2:	01874703          	lbu	a4,24(a4)
    800003b6:	f52703e3          	beq	a4,s2,800002fc <consoleintr+0x3c>
      cons.e--;
    800003ba:	0af4a023          	sw	a5,160(s1)
      consputc(BACKSPACE);
    800003be:	10000513          	li	a0,256
    800003c2:	00000097          	auipc	ra,0x0
    800003c6:	ebc080e7          	jalr	-324(ra) # 8000027e <consputc>
    while(cons.e != cons.w &&
    800003ca:	0a04a783          	lw	a5,160(s1)
    800003ce:	09c4a703          	lw	a4,156(s1)
    800003d2:	fcf71ce3          	bne	a4,a5,800003aa <consoleintr+0xea>
    800003d6:	b71d                	j	800002fc <consoleintr+0x3c>
    if(cons.e != cons.w){
    800003d8:	00011717          	auipc	a4,0x11
    800003dc:	45870713          	add	a4,a4,1112 # 80011830 <cons>
    800003e0:	0a072783          	lw	a5,160(a4)
    800003e4:	09c72703          	lw	a4,156(a4)
    800003e8:	f0f70ae3          	beq	a4,a5,800002fc <consoleintr+0x3c>
      cons.e--;
    800003ec:	37fd                	addw	a5,a5,-1
    800003ee:	00011717          	auipc	a4,0x11
    800003f2:	4ef72123          	sw	a5,1250(a4) # 800118d0 <cons+0xa0>
      consputc(BACKSPACE);
    800003f6:	10000513          	li	a0,256
    800003fa:	00000097          	auipc	ra,0x0
    800003fe:	e84080e7          	jalr	-380(ra) # 8000027e <consputc>
    80000402:	bded                	j	800002fc <consoleintr+0x3c>
    if(c != 0 && cons.e-cons.r < INPUT_BUF){
    80000404:	ee048ce3          	beqz	s1,800002fc <consoleintr+0x3c>
    80000408:	bf21                	j	80000320 <consoleintr+0x60>
      consputc(c);
    8000040a:	4529                	li	a0,10
    8000040c:	00000097          	auipc	ra,0x0
    80000410:	e72080e7          	jalr	-398(ra) # 8000027e <consputc>
      cons.buf[cons.e++ % INPUT_BUF] = c;
    80000414:	00011797          	auipc	a5,0x11
    80000418:	41c78793          	add	a5,a5,1052 # 80011830 <cons>
    8000041c:	0a07a703          	lw	a4,160(a5)
    80000420:	0017069b          	addw	a3,a4,1
    80000424:	0006861b          	sext.w	a2,a3
    80000428:	0ad7a023          	sw	a3,160(a5)
    8000042c:	07f77713          	and	a4,a4,127
    80000430:	97ba                	add	a5,a5,a4
    80000432:	4729                	li	a4,10
    80000434:	00e78c23          	sb	a4,24(a5)
        cons.w = cons.e;
    80000438:	00011797          	auipc	a5,0x11
    8000043c:	48c7aa23          	sw	a2,1172(a5) # 800118cc <cons+0x9c>
        wakeup(&cons.r);
    80000440:	00011517          	auipc	a0,0x11
    80000444:	48850513          	add	a0,a0,1160 # 800118c8 <cons+0x98>
    80000448:	00002097          	auipc	ra,0x2
    8000044c:	1ec080e7          	jalr	492(ra) # 80002634 <wakeup>
    80000450:	b575                	j	800002fc <consoleintr+0x3c>

0000000080000452 <consoleinit>:

void
consoleinit(void)
{
    80000452:	1141                	add	sp,sp,-16
    80000454:	e406                	sd	ra,8(sp)
    80000456:	e022                	sd	s0,0(sp)
    80000458:	0800                	add	s0,sp,16
  initlock(&cons.lock, "cons");
    8000045a:	00008597          	auipc	a1,0x8
    8000045e:	ba658593          	add	a1,a1,-1114 # 80008000 <etext>
    80000462:	00011517          	auipc	a0,0x11
    80000466:	3ce50513          	add	a0,a0,974 # 80011830 <cons>
    8000046a:	00000097          	auipc	ra,0x0
    8000046e:	702080e7          	jalr	1794(ra) # 80000b6c <initlock>

  uartinit();
    80000472:	00000097          	auipc	ra,0x0
    80000476:	32c080e7          	jalr	812(ra) # 8000079e <uartinit>

  // connect read and write system calls
  // to consoleread and consolewrite.
  devsw[CONSOLE].read = consoleread;
    8000047a:	00021797          	auipc	a5,0x21
    8000047e:	73678793          	add	a5,a5,1846 # 80021bb0 <devsw>
    80000482:	00000717          	auipc	a4,0x0
    80000486:	cee70713          	add	a4,a4,-786 # 80000170 <consoleread>
    8000048a:	eb98                	sd	a4,16(a5)
  devsw[CONSOLE].write = consolewrite;
    8000048c:	00000717          	auipc	a4,0x0
    80000490:	c6070713          	add	a4,a4,-928 # 800000ec <consolewrite>
    80000494:	ef98                	sd	a4,24(a5)
}
    80000496:	60a2                	ld	ra,8(sp)
    80000498:	6402                	ld	s0,0(sp)
    8000049a:	0141                	add	sp,sp,16
    8000049c:	8082                	ret

000000008000049e <printint>:

static char digits[] = "0123456789abcdef";

static void
printint(int xx, int base, int sign)
{
    8000049e:	7179                	add	sp,sp,-48
    800004a0:	f406                	sd	ra,40(sp)
    800004a2:	f022                	sd	s0,32(sp)
    800004a4:	ec26                	sd	s1,24(sp)
    800004a6:	e84a                	sd	s2,16(sp)
    800004a8:	1800                	add	s0,sp,48
  char buf[16];
  int i;
  uint x;

  if(sign && (sign = xx < 0))
    800004aa:	c219                	beqz	a2,800004b0 <printint+0x12>
    800004ac:	08054763          	bltz	a0,8000053a <printint+0x9c>
    x = -xx;
  else
    x = xx;
    800004b0:	2501                	sext.w	a0,a0
    800004b2:	4881                	li	a7,0
    800004b4:	fd040693          	add	a3,s0,-48

  i = 0;
    800004b8:	4701                	li	a4,0
  do {
    buf[i++] = digits[x % base];
    800004ba:	2581                	sext.w	a1,a1
    800004bc:	00008617          	auipc	a2,0x8
    800004c0:	b7460613          	add	a2,a2,-1164 # 80008030 <digits>
    800004c4:	883a                	mv	a6,a4
    800004c6:	2705                	addw	a4,a4,1
    800004c8:	02b577bb          	remuw	a5,a0,a1
    800004cc:	1782                	sll	a5,a5,0x20
    800004ce:	9381                	srl	a5,a5,0x20
    800004d0:	97b2                	add	a5,a5,a2
    800004d2:	0007c783          	lbu	a5,0(a5)
    800004d6:	00f68023          	sb	a5,0(a3)
  } while((x /= base) != 0);
    800004da:	0005079b          	sext.w	a5,a0
    800004de:	02b5553b          	divuw	a0,a0,a1
    800004e2:	0685                	add	a3,a3,1
    800004e4:	feb7f0e3          	bgeu	a5,a1,800004c4 <printint+0x26>

  if(sign)
    800004e8:	00088c63          	beqz	a7,80000500 <printint+0x62>
    buf[i++] = '-';
    800004ec:	fe070793          	add	a5,a4,-32
    800004f0:	00878733          	add	a4,a5,s0
    800004f4:	02d00793          	li	a5,45
    800004f8:	fef70823          	sb	a5,-16(a4)
    800004fc:	0028071b          	addw	a4,a6,2

  while(--i >= 0)
    80000500:	02e05763          	blez	a4,8000052e <printint+0x90>
    80000504:	fd040793          	add	a5,s0,-48
    80000508:	00e784b3          	add	s1,a5,a4
    8000050c:	fff78913          	add	s2,a5,-1
    80000510:	993a                	add	s2,s2,a4
    80000512:	377d                	addw	a4,a4,-1
    80000514:	1702                	sll	a4,a4,0x20
    80000516:	9301                	srl	a4,a4,0x20
    80000518:	40e90933          	sub	s2,s2,a4
    consputc(buf[i]);
    8000051c:	fff4c503          	lbu	a0,-1(s1)
    80000520:	00000097          	auipc	ra,0x0
    80000524:	d5e080e7          	jalr	-674(ra) # 8000027e <consputc>
  while(--i >= 0)
    80000528:	14fd                	add	s1,s1,-1
    8000052a:	ff2499e3          	bne	s1,s2,8000051c <printint+0x7e>
}
    8000052e:	70a2                	ld	ra,40(sp)
    80000530:	7402                	ld	s0,32(sp)
    80000532:	64e2                	ld	s1,24(sp)
    80000534:	6942                	ld	s2,16(sp)
    80000536:	6145                	add	sp,sp,48
    80000538:	8082                	ret
    x = -xx;
    8000053a:	40a0053b          	negw	a0,a0
  if(sign && (sign = xx < 0))
    8000053e:	4885                	li	a7,1
    x = -xx;
    80000540:	bf95                	j	800004b4 <printint+0x16>

0000000080000542 <panic>:
    release(&pr.lock);
}

void
panic(char *s)
{
    80000542:	1101                	add	sp,sp,-32
    80000544:	ec06                	sd	ra,24(sp)
    80000546:	e822                	sd	s0,16(sp)
    80000548:	e426                	sd	s1,8(sp)
    8000054a:	1000                	add	s0,sp,32
    8000054c:	84aa                	mv	s1,a0
  pr.locking = 0;
    8000054e:	00011797          	auipc	a5,0x11
    80000552:	3a07a123          	sw	zero,930(a5) # 800118f0 <pr+0x18>
  printf("panic: ");
    80000556:	00008517          	auipc	a0,0x8
    8000055a:	ab250513          	add	a0,a0,-1358 # 80008008 <etext+0x8>
    8000055e:	00000097          	auipc	ra,0x0
    80000562:	02e080e7          	jalr	46(ra) # 8000058c <printf>
  printf(s);
    80000566:	8526                	mv	a0,s1
    80000568:	00000097          	auipc	ra,0x0
    8000056c:	024080e7          	jalr	36(ra) # 8000058c <printf>
  printf("\n");
    80000570:	00008517          	auipc	a0,0x8
    80000574:	b4850513          	add	a0,a0,-1208 # 800080b8 <digits+0x88>
    80000578:	00000097          	auipc	ra,0x0
    8000057c:	014080e7          	jalr	20(ra) # 8000058c <printf>
  panicked = 1; // freeze uart output from other CPUs
    80000580:	4785                	li	a5,1
    80000582:	00009717          	auipc	a4,0x9
    80000586:	a6f72f23          	sw	a5,-1410(a4) # 80009000 <panicked>
  for(;;)
    8000058a:	a001                	j	8000058a <panic+0x48>

000000008000058c <printf>:
{
    8000058c:	7131                	add	sp,sp,-192
    8000058e:	fc86                	sd	ra,120(sp)
    80000590:	f8a2                	sd	s0,112(sp)
    80000592:	f4a6                	sd	s1,104(sp)
    80000594:	f0ca                	sd	s2,96(sp)
    80000596:	ecce                	sd	s3,88(sp)
    80000598:	e8d2                	sd	s4,80(sp)
    8000059a:	e4d6                	sd	s5,72(sp)
    8000059c:	e0da                	sd	s6,64(sp)
    8000059e:	fc5e                	sd	s7,56(sp)
    800005a0:	f862                	sd	s8,48(sp)
    800005a2:	f466                	sd	s9,40(sp)
    800005a4:	f06a                	sd	s10,32(sp)
    800005a6:	ec6e                	sd	s11,24(sp)
    800005a8:	0100                	add	s0,sp,128
    800005aa:	8a2a                	mv	s4,a0
    800005ac:	e40c                	sd	a1,8(s0)
    800005ae:	e810                	sd	a2,16(s0)
    800005b0:	ec14                	sd	a3,24(s0)
    800005b2:	f018                	sd	a4,32(s0)
    800005b4:	f41c                	sd	a5,40(s0)
    800005b6:	03043823          	sd	a6,48(s0)
    800005ba:	03143c23          	sd	a7,56(s0)
  locking = pr.locking;
    800005be:	00011d97          	auipc	s11,0x11
    800005c2:	332dad83          	lw	s11,818(s11) # 800118f0 <pr+0x18>
  if(locking)
    800005c6:	020d9b63          	bnez	s11,800005fc <printf+0x70>
  if (fmt == 0)
    800005ca:	040a0263          	beqz	s4,8000060e <printf+0x82>
  va_start(ap, fmt);
    800005ce:	00840793          	add	a5,s0,8
    800005d2:	f8f43423          	sd	a5,-120(s0)
  for(i = 0; (c = fmt[i] & 0xff) != 0; i++){
    800005d6:	000a4503          	lbu	a0,0(s4)
    800005da:	14050f63          	beqz	a0,80000738 <printf+0x1ac>
    800005de:	4981                	li	s3,0
    if(c != '%'){
    800005e0:	02500a93          	li	s5,37
    switch(c){
    800005e4:	07000b93          	li	s7,112
  consputc('x');
    800005e8:	4d41                	li	s10,16
    consputc(digits[x >> (sizeof(uint64) * 8 - 4)]);
    800005ea:	00008b17          	auipc	s6,0x8
    800005ee:	a46b0b13          	add	s6,s6,-1466 # 80008030 <digits>
    switch(c){
    800005f2:	07300c93          	li	s9,115
    800005f6:	06400c13          	li	s8,100
    800005fa:	a82d                	j	80000634 <printf+0xa8>
    acquire(&pr.lock);
    800005fc:	00011517          	auipc	a0,0x11
    80000600:	2dc50513          	add	a0,a0,732 # 800118d8 <pr>
    80000604:	00000097          	auipc	ra,0x0
    80000608:	5f8080e7          	jalr	1528(ra) # 80000bfc <acquire>
    8000060c:	bf7d                	j	800005ca <printf+0x3e>
    panic("null fmt");
    8000060e:	00008517          	auipc	a0,0x8
    80000612:	a0a50513          	add	a0,a0,-1526 # 80008018 <etext+0x18>
    80000616:	00000097          	auipc	ra,0x0
    8000061a:	f2c080e7          	jalr	-212(ra) # 80000542 <panic>
      consputc(c);
    8000061e:	00000097          	auipc	ra,0x0
    80000622:	c60080e7          	jalr	-928(ra) # 8000027e <consputc>
  for(i = 0; (c = fmt[i] & 0xff) != 0; i++){
    80000626:	2985                	addw	s3,s3,1
    80000628:	013a07b3          	add	a5,s4,s3
    8000062c:	0007c503          	lbu	a0,0(a5)
    80000630:	10050463          	beqz	a0,80000738 <printf+0x1ac>
    if(c != '%'){
    80000634:	ff5515e3          	bne	a0,s5,8000061e <printf+0x92>
    c = fmt[++i] & 0xff;
    80000638:	2985                	addw	s3,s3,1
    8000063a:	013a07b3          	add	a5,s4,s3
    8000063e:	0007c783          	lbu	a5,0(a5)
    80000642:	0007849b          	sext.w	s1,a5
    if(c == 0)
    80000646:	cbed                	beqz	a5,80000738 <printf+0x1ac>
    switch(c){
    80000648:	05778a63          	beq	a5,s7,8000069c <printf+0x110>
    8000064c:	02fbf663          	bgeu	s7,a5,80000678 <printf+0xec>
    80000650:	09978863          	beq	a5,s9,800006e0 <printf+0x154>
    80000654:	07800713          	li	a4,120
    80000658:	0ce79563          	bne	a5,a4,80000722 <printf+0x196>
      printint(va_arg(ap, int), 16, 1);
    8000065c:	f8843783          	ld	a5,-120(s0)
    80000660:	00878713          	add	a4,a5,8
    80000664:	f8e43423          	sd	a4,-120(s0)
    80000668:	4605                	li	a2,1
    8000066a:	85ea                	mv	a1,s10
    8000066c:	4388                	lw	a0,0(a5)
    8000066e:	00000097          	auipc	ra,0x0
    80000672:	e30080e7          	jalr	-464(ra) # 8000049e <printint>
      break;
    80000676:	bf45                	j	80000626 <printf+0x9a>
    switch(c){
    80000678:	09578f63          	beq	a5,s5,80000716 <printf+0x18a>
    8000067c:	0b879363          	bne	a5,s8,80000722 <printf+0x196>
      printint(va_arg(ap, int), 10, 1);
    80000680:	f8843783          	ld	a5,-120(s0)
    80000684:	00878713          	add	a4,a5,8
    80000688:	f8e43423          	sd	a4,-120(s0)
    8000068c:	4605                	li	a2,1
    8000068e:	45a9                	li	a1,10
    80000690:	4388                	lw	a0,0(a5)
    80000692:	00000097          	auipc	ra,0x0
    80000696:	e0c080e7          	jalr	-500(ra) # 8000049e <printint>
      break;
    8000069a:	b771                	j	80000626 <printf+0x9a>
      printptr(va_arg(ap, uint64));
    8000069c:	f8843783          	ld	a5,-120(s0)
    800006a0:	00878713          	add	a4,a5,8
    800006a4:	f8e43423          	sd	a4,-120(s0)
    800006a8:	0007b903          	ld	s2,0(a5)
  consputc('0');
    800006ac:	03000513          	li	a0,48
    800006b0:	00000097          	auipc	ra,0x0
    800006b4:	bce080e7          	jalr	-1074(ra) # 8000027e <consputc>
  consputc('x');
    800006b8:	07800513          	li	a0,120
    800006bc:	00000097          	auipc	ra,0x0
    800006c0:	bc2080e7          	jalr	-1086(ra) # 8000027e <consputc>
    800006c4:	84ea                	mv	s1,s10
    consputc(digits[x >> (sizeof(uint64) * 8 - 4)]);
    800006c6:	03c95793          	srl	a5,s2,0x3c
    800006ca:	97da                	add	a5,a5,s6
    800006cc:	0007c503          	lbu	a0,0(a5)
    800006d0:	00000097          	auipc	ra,0x0
    800006d4:	bae080e7          	jalr	-1106(ra) # 8000027e <consputc>
  for (i = 0; i < (sizeof(uint64) * 2); i++, x <<= 4)
    800006d8:	0912                	sll	s2,s2,0x4
    800006da:	34fd                	addw	s1,s1,-1
    800006dc:	f4ed                	bnez	s1,800006c6 <printf+0x13a>
    800006de:	b7a1                	j	80000626 <printf+0x9a>
      if((s = va_arg(ap, char*)) == 0)
    800006e0:	f8843783          	ld	a5,-120(s0)
    800006e4:	00878713          	add	a4,a5,8
    800006e8:	f8e43423          	sd	a4,-120(s0)
    800006ec:	6384                	ld	s1,0(a5)
    800006ee:	cc89                	beqz	s1,80000708 <printf+0x17c>
      for(; *s; s++)
    800006f0:	0004c503          	lbu	a0,0(s1)
    800006f4:	d90d                	beqz	a0,80000626 <printf+0x9a>
        consputc(*s);
    800006f6:	00000097          	auipc	ra,0x0
    800006fa:	b88080e7          	jalr	-1144(ra) # 8000027e <consputc>
      for(; *s; s++)
    800006fe:	0485                	add	s1,s1,1
    80000700:	0004c503          	lbu	a0,0(s1)
    80000704:	f96d                	bnez	a0,800006f6 <printf+0x16a>
    80000706:	b705                	j	80000626 <printf+0x9a>
        s = "(null)";
    80000708:	00008497          	auipc	s1,0x8
    8000070c:	90848493          	add	s1,s1,-1784 # 80008010 <etext+0x10>
      for(; *s; s++)
    80000710:	02800513          	li	a0,40
    80000714:	b7cd                	j	800006f6 <printf+0x16a>
      consputc('%');
    80000716:	8556                	mv	a0,s5
    80000718:	00000097          	auipc	ra,0x0
    8000071c:	b66080e7          	jalr	-1178(ra) # 8000027e <consputc>
      break;
    80000720:	b719                	j	80000626 <printf+0x9a>
      consputc('%');
    80000722:	8556                	mv	a0,s5
    80000724:	00000097          	auipc	ra,0x0
    80000728:	b5a080e7          	jalr	-1190(ra) # 8000027e <consputc>
      consputc(c);
    8000072c:	8526                	mv	a0,s1
    8000072e:	00000097          	auipc	ra,0x0
    80000732:	b50080e7          	jalr	-1200(ra) # 8000027e <consputc>
      break;
    80000736:	bdc5                	j	80000626 <printf+0x9a>
  if(locking)
    80000738:	020d9163          	bnez	s11,8000075a <printf+0x1ce>
}
    8000073c:	70e6                	ld	ra,120(sp)
    8000073e:	7446                	ld	s0,112(sp)
    80000740:	74a6                	ld	s1,104(sp)
    80000742:	7906                	ld	s2,96(sp)
    80000744:	69e6                	ld	s3,88(sp)
    80000746:	6a46                	ld	s4,80(sp)
    80000748:	6aa6                	ld	s5,72(sp)
    8000074a:	6b06                	ld	s6,64(sp)
    8000074c:	7be2                	ld	s7,56(sp)
    8000074e:	7c42                	ld	s8,48(sp)
    80000750:	7ca2                	ld	s9,40(sp)
    80000752:	7d02                	ld	s10,32(sp)
    80000754:	6de2                	ld	s11,24(sp)
    80000756:	6129                	add	sp,sp,192
    80000758:	8082                	ret
    release(&pr.lock);
    8000075a:	00011517          	auipc	a0,0x11
    8000075e:	17e50513          	add	a0,a0,382 # 800118d8 <pr>
    80000762:	00000097          	auipc	ra,0x0
    80000766:	54e080e7          	jalr	1358(ra) # 80000cb0 <release>
}
    8000076a:	bfc9                	j	8000073c <printf+0x1b0>

000000008000076c <printfinit>:
    ;
}

void
printfinit(void)
{
    8000076c:	1101                	add	sp,sp,-32
    8000076e:	ec06                	sd	ra,24(sp)
    80000770:	e822                	sd	s0,16(sp)
    80000772:	e426                	sd	s1,8(sp)
    80000774:	1000                	add	s0,sp,32
  initlock(&pr.lock, "pr");
    80000776:	00011497          	auipc	s1,0x11
    8000077a:	16248493          	add	s1,s1,354 # 800118d8 <pr>
    8000077e:	00008597          	auipc	a1,0x8
    80000782:	8aa58593          	add	a1,a1,-1878 # 80008028 <etext+0x28>
    80000786:	8526                	mv	a0,s1
    80000788:	00000097          	auipc	ra,0x0
    8000078c:	3e4080e7          	jalr	996(ra) # 80000b6c <initlock>
  pr.locking = 1;
    80000790:	4785                	li	a5,1
    80000792:	cc9c                	sw	a5,24(s1)
}
    80000794:	60e2                	ld	ra,24(sp)
    80000796:	6442                	ld	s0,16(sp)
    80000798:	64a2                	ld	s1,8(sp)
    8000079a:	6105                	add	sp,sp,32
    8000079c:	8082                	ret

000000008000079e <uartinit>:

void uartstart();

void
uartinit(void)
{
    8000079e:	1141                	add	sp,sp,-16
    800007a0:	e406                	sd	ra,8(sp)
    800007a2:	e022                	sd	s0,0(sp)
    800007a4:	0800                	add	s0,sp,16
  // disable interrupts.
  WriteReg(IER, 0x00);
    800007a6:	100007b7          	lui	a5,0x10000
    800007aa:	000780a3          	sb	zero,1(a5) # 10000001 <_entry-0x6fffffff>

  // special mode to set baud rate.
  WriteReg(LCR, LCR_BAUD_LATCH);
    800007ae:	f8000713          	li	a4,-128
    800007b2:	00e781a3          	sb	a4,3(a5)

  // LSB for baud rate of 38.4K.
  WriteReg(0, 0x03);
    800007b6:	470d                	li	a4,3
    800007b8:	00e78023          	sb	a4,0(a5)

  // MSB for baud rate of 38.4K.
  WriteReg(1, 0x00);
    800007bc:	000780a3          	sb	zero,1(a5)

  // leave set-baud mode,
  // and set word length to 8 bits, no parity.
  WriteReg(LCR, LCR_EIGHT_BITS);
    800007c0:	00e781a3          	sb	a4,3(a5)

  // reset and enable FIFOs.
  WriteReg(FCR, FCR_FIFO_ENABLE | FCR_FIFO_CLEAR);
    800007c4:	469d                	li	a3,7
    800007c6:	00d78123          	sb	a3,2(a5)

  // enable transmit and receive interrupts.
  WriteReg(IER, IER_TX_ENABLE | IER_RX_ENABLE);
    800007ca:	00e780a3          	sb	a4,1(a5)

  initlock(&uart_tx_lock, "uart");
    800007ce:	00008597          	auipc	a1,0x8
    800007d2:	87a58593          	add	a1,a1,-1926 # 80008048 <digits+0x18>
    800007d6:	00011517          	auipc	a0,0x11
    800007da:	12250513          	add	a0,a0,290 # 800118f8 <uart_tx_lock>
    800007de:	00000097          	auipc	ra,0x0
    800007e2:	38e080e7          	jalr	910(ra) # 80000b6c <initlock>
}
    800007e6:	60a2                	ld	ra,8(sp)
    800007e8:	6402                	ld	s0,0(sp)
    800007ea:	0141                	add	sp,sp,16
    800007ec:	8082                	ret

00000000800007ee <uartputc_sync>:
// use interrupts, for use by kernel printf() and
// to echo characters. it spins waiting for the uart's
// output register to be empty.
void
uartputc_sync(int c)
{
    800007ee:	1101                	add	sp,sp,-32
    800007f0:	ec06                	sd	ra,24(sp)
    800007f2:	e822                	sd	s0,16(sp)
    800007f4:	e426                	sd	s1,8(sp)
    800007f6:	1000                	add	s0,sp,32
    800007f8:	84aa                	mv	s1,a0
  push_off();
    800007fa:	00000097          	auipc	ra,0x0
    800007fe:	3b6080e7          	jalr	950(ra) # 80000bb0 <push_off>

  if(panicked){
    80000802:	00008797          	auipc	a5,0x8
    80000806:	7fe7a783          	lw	a5,2046(a5) # 80009000 <panicked>
    for(;;)
      ;
  }

  // wait for Transmit Holding Empty to be set in LSR.
  while((ReadReg(LSR) & LSR_TX_IDLE) == 0)
    8000080a:	10000737          	lui	a4,0x10000
  if(panicked){
    8000080e:	c391                	beqz	a5,80000812 <uartputc_sync+0x24>
    for(;;)
    80000810:	a001                	j	80000810 <uartputc_sync+0x22>
  while((ReadReg(LSR) & LSR_TX_IDLE) == 0)
    80000812:	00574783          	lbu	a5,5(a4) # 10000005 <_entry-0x6ffffffb>
    80000816:	0207f793          	and	a5,a5,32
    8000081a:	dfe5                	beqz	a5,80000812 <uartputc_sync+0x24>
    ;
  WriteReg(THR, c);
    8000081c:	0ff4f513          	zext.b	a0,s1
    80000820:	100007b7          	lui	a5,0x10000
    80000824:	00a78023          	sb	a0,0(a5) # 10000000 <_entry-0x70000000>

  pop_off();
    80000828:	00000097          	auipc	ra,0x0
    8000082c:	428080e7          	jalr	1064(ra) # 80000c50 <pop_off>
}
    80000830:	60e2                	ld	ra,24(sp)
    80000832:	6442                	ld	s0,16(sp)
    80000834:	64a2                	ld	s1,8(sp)
    80000836:	6105                	add	sp,sp,32
    80000838:	8082                	ret

000000008000083a <uartstart>:
// called from both the top- and bottom-half.
void
uartstart()
{
  while(1){
    if(uart_tx_w == uart_tx_r){
    8000083a:	00008797          	auipc	a5,0x8
    8000083e:	7ca7a783          	lw	a5,1994(a5) # 80009004 <uart_tx_r>
    80000842:	00008717          	auipc	a4,0x8
    80000846:	7c672703          	lw	a4,1990(a4) # 80009008 <uart_tx_w>
    8000084a:	08f70063          	beq	a4,a5,800008ca <uartstart+0x90>
{
    8000084e:	7139                	add	sp,sp,-64
    80000850:	fc06                	sd	ra,56(sp)
    80000852:	f822                	sd	s0,48(sp)
    80000854:	f426                	sd	s1,40(sp)
    80000856:	f04a                	sd	s2,32(sp)
    80000858:	ec4e                	sd	s3,24(sp)
    8000085a:	e852                	sd	s4,16(sp)
    8000085c:	e456                	sd	s5,8(sp)
    8000085e:	0080                	add	s0,sp,64
      // transmit buffer is empty.
      return;
    }
    
    if((ReadReg(LSR) & LSR_TX_IDLE) == 0){
    80000860:	10000937          	lui	s2,0x10000
      // so we cannot give it another byte.
      // it will interrupt when it's ready for a new byte.
      return;
    }
    
    int c = uart_tx_buf[uart_tx_r];
    80000864:	00011a97          	auipc	s5,0x11
    80000868:	094a8a93          	add	s5,s5,148 # 800118f8 <uart_tx_lock>
    uart_tx_r = (uart_tx_r + 1) % UART_TX_BUF_SIZE;
    8000086c:	00008497          	auipc	s1,0x8
    80000870:	79848493          	add	s1,s1,1944 # 80009004 <uart_tx_r>
    if(uart_tx_w == uart_tx_r){
    80000874:	00008a17          	auipc	s4,0x8
    80000878:	794a0a13          	add	s4,s4,1940 # 80009008 <uart_tx_w>
    if((ReadReg(LSR) & LSR_TX_IDLE) == 0){
    8000087c:	00594703          	lbu	a4,5(s2) # 10000005 <_entry-0x6ffffffb>
    80000880:	02077713          	and	a4,a4,32
    80000884:	cb15                	beqz	a4,800008b8 <uartstart+0x7e>
    int c = uart_tx_buf[uart_tx_r];
    80000886:	00fa8733          	add	a4,s5,a5
    8000088a:	01874983          	lbu	s3,24(a4)
    uart_tx_r = (uart_tx_r + 1) % UART_TX_BUF_SIZE;
    8000088e:	2785                	addw	a5,a5,1
    80000890:	41f7d71b          	sraw	a4,a5,0x1f
    80000894:	01b7571b          	srlw	a4,a4,0x1b
    80000898:	9fb9                	addw	a5,a5,a4
    8000089a:	8bfd                	and	a5,a5,31
    8000089c:	9f99                	subw	a5,a5,a4
    8000089e:	c09c                	sw	a5,0(s1)
    
    // maybe uartputc() is waiting for space in the buffer.
    wakeup(&uart_tx_r);
    800008a0:	8526                	mv	a0,s1
    800008a2:	00002097          	auipc	ra,0x2
    800008a6:	d92080e7          	jalr	-622(ra) # 80002634 <wakeup>
    
    WriteReg(THR, c);
    800008aa:	01390023          	sb	s3,0(s2)
    if(uart_tx_w == uart_tx_r){
    800008ae:	409c                	lw	a5,0(s1)
    800008b0:	000a2703          	lw	a4,0(s4)
    800008b4:	fcf714e3          	bne	a4,a5,8000087c <uartstart+0x42>
  }
}
    800008b8:	70e2                	ld	ra,56(sp)
    800008ba:	7442                	ld	s0,48(sp)
    800008bc:	74a2                	ld	s1,40(sp)
    800008be:	7902                	ld	s2,32(sp)
    800008c0:	69e2                	ld	s3,24(sp)
    800008c2:	6a42                	ld	s4,16(sp)
    800008c4:	6aa2                	ld	s5,8(sp)
    800008c6:	6121                	add	sp,sp,64
    800008c8:	8082                	ret
    800008ca:	8082                	ret

00000000800008cc <uartputc>:
{
    800008cc:	7179                	add	sp,sp,-48
    800008ce:	f406                	sd	ra,40(sp)
    800008d0:	f022                	sd	s0,32(sp)
    800008d2:	ec26                	sd	s1,24(sp)
    800008d4:	e84a                	sd	s2,16(sp)
    800008d6:	e44e                	sd	s3,8(sp)
    800008d8:	e052                	sd	s4,0(sp)
    800008da:	1800                	add	s0,sp,48
    800008dc:	84aa                	mv	s1,a0
  acquire(&uart_tx_lock);
    800008de:	00011517          	auipc	a0,0x11
    800008e2:	01a50513          	add	a0,a0,26 # 800118f8 <uart_tx_lock>
    800008e6:	00000097          	auipc	ra,0x0
    800008ea:	316080e7          	jalr	790(ra) # 80000bfc <acquire>
  if(panicked){
    800008ee:	00008797          	auipc	a5,0x8
    800008f2:	7127a783          	lw	a5,1810(a5) # 80009000 <panicked>
    800008f6:	c391                	beqz	a5,800008fa <uartputc+0x2e>
    for(;;)
    800008f8:	a001                	j	800008f8 <uartputc+0x2c>
    if(((uart_tx_w + 1) % UART_TX_BUF_SIZE) == uart_tx_r){
    800008fa:	00008697          	auipc	a3,0x8
    800008fe:	70e6a683          	lw	a3,1806(a3) # 80009008 <uart_tx_w>
    80000902:	0016879b          	addw	a5,a3,1
    80000906:	41f7d71b          	sraw	a4,a5,0x1f
    8000090a:	01b7571b          	srlw	a4,a4,0x1b
    8000090e:	9fb9                	addw	a5,a5,a4
    80000910:	8bfd                	and	a5,a5,31
    80000912:	9f99                	subw	a5,a5,a4
    80000914:	00008717          	auipc	a4,0x8
    80000918:	6f072703          	lw	a4,1776(a4) # 80009004 <uart_tx_r>
    8000091c:	04f71363          	bne	a4,a5,80000962 <uartputc+0x96>
      sleep(&uart_tx_r, &uart_tx_lock);
    80000920:	00011a17          	auipc	s4,0x11
    80000924:	fd8a0a13          	add	s4,s4,-40 # 800118f8 <uart_tx_lock>
    80000928:	00008917          	auipc	s2,0x8
    8000092c:	6dc90913          	add	s2,s2,1756 # 80009004 <uart_tx_r>
    if(((uart_tx_w + 1) % UART_TX_BUF_SIZE) == uart_tx_r){
    80000930:	00008997          	auipc	s3,0x8
    80000934:	6d898993          	add	s3,s3,1752 # 80009008 <uart_tx_w>
      sleep(&uart_tx_r, &uart_tx_lock);
    80000938:	85d2                	mv	a1,s4
    8000093a:	854a                	mv	a0,s2
    8000093c:	00002097          	auipc	ra,0x2
    80000940:	b78080e7          	jalr	-1160(ra) # 800024b4 <sleep>
    if(((uart_tx_w + 1) % UART_TX_BUF_SIZE) == uart_tx_r){
    80000944:	0009a683          	lw	a3,0(s3)
    80000948:	0016879b          	addw	a5,a3,1
    8000094c:	41f7d71b          	sraw	a4,a5,0x1f
    80000950:	01b7571b          	srlw	a4,a4,0x1b
    80000954:	9fb9                	addw	a5,a5,a4
    80000956:	8bfd                	and	a5,a5,31
    80000958:	9f99                	subw	a5,a5,a4
    8000095a:	00092703          	lw	a4,0(s2)
    8000095e:	fcf70de3          	beq	a4,a5,80000938 <uartputc+0x6c>
      uart_tx_buf[uart_tx_w] = c;
    80000962:	00011917          	auipc	s2,0x11
    80000966:	f9690913          	add	s2,s2,-106 # 800118f8 <uart_tx_lock>
    8000096a:	96ca                	add	a3,a3,s2
    8000096c:	00968c23          	sb	s1,24(a3)
      uart_tx_w = (uart_tx_w + 1) % UART_TX_BUF_SIZE;
    80000970:	00008717          	auipc	a4,0x8
    80000974:	68f72c23          	sw	a5,1688(a4) # 80009008 <uart_tx_w>
      uartstart();
    80000978:	00000097          	auipc	ra,0x0
    8000097c:	ec2080e7          	jalr	-318(ra) # 8000083a <uartstart>
      release(&uart_tx_lock);
    80000980:	854a                	mv	a0,s2
    80000982:	00000097          	auipc	ra,0x0
    80000986:	32e080e7          	jalr	814(ra) # 80000cb0 <release>
}
    8000098a:	70a2                	ld	ra,40(sp)
    8000098c:	7402                	ld	s0,32(sp)
    8000098e:	64e2                	ld	s1,24(sp)
    80000990:	6942                	ld	s2,16(sp)
    80000992:	69a2                	ld	s3,8(sp)
    80000994:	6a02                	ld	s4,0(sp)
    80000996:	6145                	add	sp,sp,48
    80000998:	8082                	ret

000000008000099a <uartgetc>:

// read one input character from the UART.
// return -1 if none is waiting.
int
uartgetc(void)
{
    8000099a:	1141                	add	sp,sp,-16
    8000099c:	e422                	sd	s0,8(sp)
    8000099e:	0800                	add	s0,sp,16
  if(ReadReg(LSR) & 0x01){
    800009a0:	100007b7          	lui	a5,0x10000
    800009a4:	0057c783          	lbu	a5,5(a5) # 10000005 <_entry-0x6ffffffb>
    800009a8:	8b85                	and	a5,a5,1
    800009aa:	cb81                	beqz	a5,800009ba <uartgetc+0x20>
    // input data is ready.
    return ReadReg(RHR);
    800009ac:	100007b7          	lui	a5,0x10000
    800009b0:	0007c503          	lbu	a0,0(a5) # 10000000 <_entry-0x70000000>
  } else {
    return -1;
  }
}
    800009b4:	6422                	ld	s0,8(sp)
    800009b6:	0141                	add	sp,sp,16
    800009b8:	8082                	ret
    return -1;
    800009ba:	557d                	li	a0,-1
    800009bc:	bfe5                	j	800009b4 <uartgetc+0x1a>

00000000800009be <uartintr>:
// handle a uart interrupt, raised because input has
// arrived, or the uart is ready for more output, or
// both. called from trap.c.
void
uartintr(void)
{
    800009be:	1101                	add	sp,sp,-32
    800009c0:	ec06                	sd	ra,24(sp)
    800009c2:	e822                	sd	s0,16(sp)
    800009c4:	e426                	sd	s1,8(sp)
    800009c6:	1000                	add	s0,sp,32
  // read and process incoming characters.
  while(1){
    int c = uartgetc();
    if(c == -1)
    800009c8:	54fd                	li	s1,-1
    800009ca:	a029                	j	800009d4 <uartintr+0x16>
      break;
    consoleintr(c);
    800009cc:	00000097          	auipc	ra,0x0
    800009d0:	8f4080e7          	jalr	-1804(ra) # 800002c0 <consoleintr>
    int c = uartgetc();
    800009d4:	00000097          	auipc	ra,0x0
    800009d8:	fc6080e7          	jalr	-58(ra) # 8000099a <uartgetc>
    if(c == -1)
    800009dc:	fe9518e3          	bne	a0,s1,800009cc <uartintr+0xe>
  }

  // send buffered characters.
  acquire(&uart_tx_lock);
    800009e0:	00011497          	auipc	s1,0x11
    800009e4:	f1848493          	add	s1,s1,-232 # 800118f8 <uart_tx_lock>
    800009e8:	8526                	mv	a0,s1
    800009ea:	00000097          	auipc	ra,0x0
    800009ee:	212080e7          	jalr	530(ra) # 80000bfc <acquire>
  uartstart();
    800009f2:	00000097          	auipc	ra,0x0
    800009f6:	e48080e7          	jalr	-440(ra) # 8000083a <uartstart>
  release(&uart_tx_lock);
    800009fa:	8526                	mv	a0,s1
    800009fc:	00000097          	auipc	ra,0x0
    80000a00:	2b4080e7          	jalr	692(ra) # 80000cb0 <release>
}
    80000a04:	60e2                	ld	ra,24(sp)
    80000a06:	6442                	ld	s0,16(sp)
    80000a08:	64a2                	ld	s1,8(sp)
    80000a0a:	6105                	add	sp,sp,32
    80000a0c:	8082                	ret

0000000080000a0e <kfree>:
// which normally should have been returned by a
// call to kalloc().  (The exception is when
// initializing the allocator; see kinit above.)
void
kfree(void *pa)
{
    80000a0e:	1101                	add	sp,sp,-32
    80000a10:	ec06                	sd	ra,24(sp)
    80000a12:	e822                	sd	s0,16(sp)
    80000a14:	e426                	sd	s1,8(sp)
    80000a16:	e04a                	sd	s2,0(sp)
    80000a18:	1000                	add	s0,sp,32
  struct run *r;

  if(((uint64)pa % PGSIZE) != 0 || (char*)pa < end || (uint64)pa >= PHYSTOP)
    80000a1a:	03451793          	sll	a5,a0,0x34
    80000a1e:	ebb9                	bnez	a5,80000a74 <kfree+0x66>
    80000a20:	84aa                	mv	s1,a0
    80000a22:	00026797          	auipc	a5,0x26
    80000a26:	5fe78793          	add	a5,a5,1534 # 80027020 <end>
    80000a2a:	04f56563          	bltu	a0,a5,80000a74 <kfree+0x66>
    80000a2e:	47c5                	li	a5,17
    80000a30:	07ee                	sll	a5,a5,0x1b
    80000a32:	04f57163          	bgeu	a0,a5,80000a74 <kfree+0x66>
    panic("kfree");

  // Fill with junk to catch dangling refs.
  memset(pa, 1, PGSIZE);
    80000a36:	6605                	lui	a2,0x1
    80000a38:	4585                	li	a1,1
    80000a3a:	00000097          	auipc	ra,0x0
    80000a3e:	2be080e7          	jalr	702(ra) # 80000cf8 <memset>

  r = (struct run*)pa;

  acquire(&kmem.lock);
    80000a42:	00011917          	auipc	s2,0x11
    80000a46:	eee90913          	add	s2,s2,-274 # 80011930 <kmem>
    80000a4a:	854a                	mv	a0,s2
    80000a4c:	00000097          	auipc	ra,0x0
    80000a50:	1b0080e7          	jalr	432(ra) # 80000bfc <acquire>
  r->next = kmem.freelist;
    80000a54:	01893783          	ld	a5,24(s2)
    80000a58:	e09c                	sd	a5,0(s1)
  kmem.freelist = r;
    80000a5a:	00993c23          	sd	s1,24(s2)
  release(&kmem.lock);
    80000a5e:	854a                	mv	a0,s2
    80000a60:	00000097          	auipc	ra,0x0
    80000a64:	250080e7          	jalr	592(ra) # 80000cb0 <release>
}
    80000a68:	60e2                	ld	ra,24(sp)
    80000a6a:	6442                	ld	s0,16(sp)
    80000a6c:	64a2                	ld	s1,8(sp)
    80000a6e:	6902                	ld	s2,0(sp)
    80000a70:	6105                	add	sp,sp,32
    80000a72:	8082                	ret
    panic("kfree");
    80000a74:	00007517          	auipc	a0,0x7
    80000a78:	5dc50513          	add	a0,a0,1500 # 80008050 <digits+0x20>
    80000a7c:	00000097          	auipc	ra,0x0
    80000a80:	ac6080e7          	jalr	-1338(ra) # 80000542 <panic>

0000000080000a84 <freerange>:
{
    80000a84:	7179                	add	sp,sp,-48
    80000a86:	f406                	sd	ra,40(sp)
    80000a88:	f022                	sd	s0,32(sp)
    80000a8a:	ec26                	sd	s1,24(sp)
    80000a8c:	e84a                	sd	s2,16(sp)
    80000a8e:	e44e                	sd	s3,8(sp)
    80000a90:	e052                	sd	s4,0(sp)
    80000a92:	1800                	add	s0,sp,48
  p = (char*)PGROUNDUP((uint64)pa_start);
    80000a94:	6785                	lui	a5,0x1
    80000a96:	fff78713          	add	a4,a5,-1 # fff <_entry-0x7ffff001>
    80000a9a:	00e504b3          	add	s1,a0,a4
    80000a9e:	777d                	lui	a4,0xfffff
    80000aa0:	8cf9                	and	s1,s1,a4
  for(; p + PGSIZE <= (char*)pa_end; p += PGSIZE)
    80000aa2:	94be                	add	s1,s1,a5
    80000aa4:	0095ee63          	bltu	a1,s1,80000ac0 <freerange+0x3c>
    80000aa8:	892e                	mv	s2,a1
    kfree(p);
    80000aaa:	7a7d                	lui	s4,0xfffff
  for(; p + PGSIZE <= (char*)pa_end; p += PGSIZE)
    80000aac:	6985                	lui	s3,0x1
    kfree(p);
    80000aae:	01448533          	add	a0,s1,s4
    80000ab2:	00000097          	auipc	ra,0x0
    80000ab6:	f5c080e7          	jalr	-164(ra) # 80000a0e <kfree>
  for(; p + PGSIZE <= (char*)pa_end; p += PGSIZE)
    80000aba:	94ce                	add	s1,s1,s3
    80000abc:	fe9979e3          	bgeu	s2,s1,80000aae <freerange+0x2a>
}
    80000ac0:	70a2                	ld	ra,40(sp)
    80000ac2:	7402                	ld	s0,32(sp)
    80000ac4:	64e2                	ld	s1,24(sp)
    80000ac6:	6942                	ld	s2,16(sp)
    80000ac8:	69a2                	ld	s3,8(sp)
    80000aca:	6a02                	ld	s4,0(sp)
    80000acc:	6145                	add	sp,sp,48
    80000ace:	8082                	ret

0000000080000ad0 <kinit>:
{
    80000ad0:	1141                	add	sp,sp,-16
    80000ad2:	e406                	sd	ra,8(sp)
    80000ad4:	e022                	sd	s0,0(sp)
    80000ad6:	0800                	add	s0,sp,16
  initlock(&kmem.lock, "kmem");
    80000ad8:	00007597          	auipc	a1,0x7
    80000adc:	58058593          	add	a1,a1,1408 # 80008058 <digits+0x28>
    80000ae0:	00011517          	auipc	a0,0x11
    80000ae4:	e5050513          	add	a0,a0,-432 # 80011930 <kmem>
    80000ae8:	00000097          	auipc	ra,0x0
    80000aec:	084080e7          	jalr	132(ra) # 80000b6c <initlock>
  freerange(end, (void*)PHYSTOP);
    80000af0:	45c5                	li	a1,17
    80000af2:	05ee                	sll	a1,a1,0x1b
    80000af4:	00026517          	auipc	a0,0x26
    80000af8:	52c50513          	add	a0,a0,1324 # 80027020 <end>
    80000afc:	00000097          	auipc	ra,0x0
    80000b00:	f88080e7          	jalr	-120(ra) # 80000a84 <freerange>
}
    80000b04:	60a2                	ld	ra,8(sp)
    80000b06:	6402                	ld	s0,0(sp)
    80000b08:	0141                	add	sp,sp,16
    80000b0a:	8082                	ret

0000000080000b0c <kalloc>:
// Allocate one 4096-byte page of physical memory.
// Returns a pointer that the kernel can use.
// Returns 0 if the memory cannot be allocated.
void *
kalloc(void)
{
    80000b0c:	1101                	add	sp,sp,-32
    80000b0e:	ec06                	sd	ra,24(sp)
    80000b10:	e822                	sd	s0,16(sp)
    80000b12:	e426                	sd	s1,8(sp)
    80000b14:	1000                	add	s0,sp,32
  struct run *r;

  acquire(&kmem.lock);
    80000b16:	00011497          	auipc	s1,0x11
    80000b1a:	e1a48493          	add	s1,s1,-486 # 80011930 <kmem>
    80000b1e:	8526                	mv	a0,s1
    80000b20:	00000097          	auipc	ra,0x0
    80000b24:	0dc080e7          	jalr	220(ra) # 80000bfc <acquire>
  r = kmem.freelist;
    80000b28:	6c84                	ld	s1,24(s1)
  if(r)
    80000b2a:	c885                	beqz	s1,80000b5a <kalloc+0x4e>
    kmem.freelist = r->next;
    80000b2c:	609c                	ld	a5,0(s1)
    80000b2e:	00011517          	auipc	a0,0x11
    80000b32:	e0250513          	add	a0,a0,-510 # 80011930 <kmem>
    80000b36:	ed1c                	sd	a5,24(a0)
  release(&kmem.lock);
    80000b38:	00000097          	auipc	ra,0x0
    80000b3c:	178080e7          	jalr	376(ra) # 80000cb0 <release>

  if(r)
    memset((char*)r, 5, PGSIZE); // fill with junk
    80000b40:	6605                	lui	a2,0x1
    80000b42:	4595                	li	a1,5
    80000b44:	8526                	mv	a0,s1
    80000b46:	00000097          	auipc	ra,0x0
    80000b4a:	1b2080e7          	jalr	434(ra) # 80000cf8 <memset>
  return (void*)r;
}
    80000b4e:	8526                	mv	a0,s1
    80000b50:	60e2                	ld	ra,24(sp)
    80000b52:	6442                	ld	s0,16(sp)
    80000b54:	64a2                	ld	s1,8(sp)
    80000b56:	6105                	add	sp,sp,32
    80000b58:	8082                	ret
  release(&kmem.lock);
    80000b5a:	00011517          	auipc	a0,0x11
    80000b5e:	dd650513          	add	a0,a0,-554 # 80011930 <kmem>
    80000b62:	00000097          	auipc	ra,0x0
    80000b66:	14e080e7          	jalr	334(ra) # 80000cb0 <release>
  if(r)
    80000b6a:	b7d5                	j	80000b4e <kalloc+0x42>

0000000080000b6c <initlock>:
#include "proc.h"
#include "defs.h"

void
initlock(struct spinlock *lk, char *name)
{
    80000b6c:	1141                	add	sp,sp,-16
    80000b6e:	e422                	sd	s0,8(sp)
    80000b70:	0800                	add	s0,sp,16
  lk->name = name;
    80000b72:	e50c                	sd	a1,8(a0)
  lk->locked = 0;
    80000b74:	00052023          	sw	zero,0(a0)
  lk->cpu = 0;
    80000b78:	00053823          	sd	zero,16(a0)
}
    80000b7c:	6422                	ld	s0,8(sp)
    80000b7e:	0141                	add	sp,sp,16
    80000b80:	8082                	ret

0000000080000b82 <holding>:
// Interrupts must be off.
int
holding(struct spinlock *lk)
{
  int r;
  r = (lk->locked && lk->cpu == mycpu());
    80000b82:	411c                	lw	a5,0(a0)
    80000b84:	e399                	bnez	a5,80000b8a <holding+0x8>
    80000b86:	4501                	li	a0,0
  return r;
}
    80000b88:	8082                	ret
{
    80000b8a:	1101                	add	sp,sp,-32
    80000b8c:	ec06                	sd	ra,24(sp)
    80000b8e:	e822                	sd	s0,16(sp)
    80000b90:	e426                	sd	s1,8(sp)
    80000b92:	1000                	add	s0,sp,32
  r = (lk->locked && lk->cpu == mycpu());
    80000b94:	6904                	ld	s1,16(a0)
    80000b96:	00001097          	auipc	ra,0x1
    80000b9a:	e86080e7          	jalr	-378(ra) # 80001a1c <mycpu>
    80000b9e:	40a48533          	sub	a0,s1,a0
    80000ba2:	00153513          	seqz	a0,a0
}
    80000ba6:	60e2                	ld	ra,24(sp)
    80000ba8:	6442                	ld	s0,16(sp)
    80000baa:	64a2                	ld	s1,8(sp)
    80000bac:	6105                	add	sp,sp,32
    80000bae:	8082                	ret

0000000080000bb0 <push_off>:
// it takes two pop_off()s to undo two push_off()s.  Also, if interrupts
// are initially off, then push_off, pop_off leaves them off.

void
push_off(void)
{
    80000bb0:	1101                	add	sp,sp,-32
    80000bb2:	ec06                	sd	ra,24(sp)
    80000bb4:	e822                	sd	s0,16(sp)
    80000bb6:	e426                	sd	s1,8(sp)
    80000bb8:	1000                	add	s0,sp,32
  asm volatile("csrr %0, sstatus" : "=r" (x) );
    80000bba:	100024f3          	csrr	s1,sstatus
    80000bbe:	100027f3          	csrr	a5,sstatus
  w_sstatus(r_sstatus() & ~SSTATUS_SIE);
    80000bc2:	9bf5                	and	a5,a5,-3
  asm volatile("csrw sstatus, %0" : : "r" (x));
    80000bc4:	10079073          	csrw	sstatus,a5
  int old = intr_get();

  intr_off();
  if(mycpu()->noff == 0)
    80000bc8:	00001097          	auipc	ra,0x1
    80000bcc:	e54080e7          	jalr	-428(ra) # 80001a1c <mycpu>
    80000bd0:	5d3c                	lw	a5,120(a0)
    80000bd2:	cf89                	beqz	a5,80000bec <push_off+0x3c>
    mycpu()->intena = old;
  mycpu()->noff += 1;
    80000bd4:	00001097          	auipc	ra,0x1
    80000bd8:	e48080e7          	jalr	-440(ra) # 80001a1c <mycpu>
    80000bdc:	5d3c                	lw	a5,120(a0)
    80000bde:	2785                	addw	a5,a5,1
    80000be0:	dd3c                	sw	a5,120(a0)
}
    80000be2:	60e2                	ld	ra,24(sp)
    80000be4:	6442                	ld	s0,16(sp)
    80000be6:	64a2                	ld	s1,8(sp)
    80000be8:	6105                	add	sp,sp,32
    80000bea:	8082                	ret
    mycpu()->intena = old;
    80000bec:	00001097          	auipc	ra,0x1
    80000bf0:	e30080e7          	jalr	-464(ra) # 80001a1c <mycpu>
  return (x & SSTATUS_SIE) != 0;
    80000bf4:	8085                	srl	s1,s1,0x1
    80000bf6:	8885                	and	s1,s1,1
    80000bf8:	dd64                	sw	s1,124(a0)
    80000bfa:	bfe9                	j	80000bd4 <push_off+0x24>

0000000080000bfc <acquire>:
{
    80000bfc:	1101                	add	sp,sp,-32
    80000bfe:	ec06                	sd	ra,24(sp)
    80000c00:	e822                	sd	s0,16(sp)
    80000c02:	e426                	sd	s1,8(sp)
    80000c04:	1000                	add	s0,sp,32
    80000c06:	84aa                	mv	s1,a0
  push_off(); // disable interrupts to avoid deadlock.
    80000c08:	00000097          	auipc	ra,0x0
    80000c0c:	fa8080e7          	jalr	-88(ra) # 80000bb0 <push_off>
  if(holding(lk))
    80000c10:	8526                	mv	a0,s1
    80000c12:	00000097          	auipc	ra,0x0
    80000c16:	f70080e7          	jalr	-144(ra) # 80000b82 <holding>
  while(__sync_lock_test_and_set(&lk->locked, 1) != 0)
    80000c1a:	4705                	li	a4,1
  if(holding(lk))
    80000c1c:	e115                	bnez	a0,80000c40 <acquire+0x44>
  while(__sync_lock_test_and_set(&lk->locked, 1) != 0)
    80000c1e:	87ba                	mv	a5,a4
    80000c20:	0cf4a7af          	amoswap.w.aq	a5,a5,(s1)
    80000c24:	2781                	sext.w	a5,a5
    80000c26:	ffe5                	bnez	a5,80000c1e <acquire+0x22>
  __sync_synchronize();
    80000c28:	0ff0000f          	fence
  lk->cpu = mycpu();
    80000c2c:	00001097          	auipc	ra,0x1
    80000c30:	df0080e7          	jalr	-528(ra) # 80001a1c <mycpu>
    80000c34:	e888                	sd	a0,16(s1)
}
    80000c36:	60e2                	ld	ra,24(sp)
    80000c38:	6442                	ld	s0,16(sp)
    80000c3a:	64a2                	ld	s1,8(sp)
    80000c3c:	6105                	add	sp,sp,32
    80000c3e:	8082                	ret
    panic("acquire");
    80000c40:	00007517          	auipc	a0,0x7
    80000c44:	42050513          	add	a0,a0,1056 # 80008060 <digits+0x30>
    80000c48:	00000097          	auipc	ra,0x0
    80000c4c:	8fa080e7          	jalr	-1798(ra) # 80000542 <panic>

0000000080000c50 <pop_off>:

void
pop_off(void)
{
    80000c50:	1141                	add	sp,sp,-16
    80000c52:	e406                	sd	ra,8(sp)
    80000c54:	e022                	sd	s0,0(sp)
    80000c56:	0800                	add	s0,sp,16
  struct cpu *c = mycpu();
    80000c58:	00001097          	auipc	ra,0x1
    80000c5c:	dc4080e7          	jalr	-572(ra) # 80001a1c <mycpu>
  asm volatile("csrr %0, sstatus" : "=r" (x) );
    80000c60:	100027f3          	csrr	a5,sstatus
  return (x & SSTATUS_SIE) != 0;
    80000c64:	8b89                	and	a5,a5,2
  if(intr_get())
    80000c66:	e78d                	bnez	a5,80000c90 <pop_off+0x40>
    panic("pop_off - interruptible");
  if(c->noff < 1)
    80000c68:	5d3c                	lw	a5,120(a0)
    80000c6a:	02f05b63          	blez	a5,80000ca0 <pop_off+0x50>
    panic("pop_off");
  c->noff -= 1;
    80000c6e:	37fd                	addw	a5,a5,-1
    80000c70:	0007871b          	sext.w	a4,a5
    80000c74:	dd3c                	sw	a5,120(a0)
  if(c->noff == 0 && c->intena)
    80000c76:	eb09                	bnez	a4,80000c88 <pop_off+0x38>
    80000c78:	5d7c                	lw	a5,124(a0)
    80000c7a:	c799                	beqz	a5,80000c88 <pop_off+0x38>
  asm volatile("csrr %0, sstatus" : "=r" (x) );
    80000c7c:	100027f3          	csrr	a5,sstatus
  w_sstatus(r_sstatus() | SSTATUS_SIE);
    80000c80:	0027e793          	or	a5,a5,2
  asm volatile("csrw sstatus, %0" : : "r" (x));
    80000c84:	10079073          	csrw	sstatus,a5
    intr_on();
}
    80000c88:	60a2                	ld	ra,8(sp)
    80000c8a:	6402                	ld	s0,0(sp)
    80000c8c:	0141                	add	sp,sp,16
    80000c8e:	8082                	ret
    panic("pop_off - interruptible");
    80000c90:	00007517          	auipc	a0,0x7
    80000c94:	3d850513          	add	a0,a0,984 # 80008068 <digits+0x38>
    80000c98:	00000097          	auipc	ra,0x0
    80000c9c:	8aa080e7          	jalr	-1878(ra) # 80000542 <panic>
    panic("pop_off");
    80000ca0:	00007517          	auipc	a0,0x7
    80000ca4:	3e050513          	add	a0,a0,992 # 80008080 <digits+0x50>
    80000ca8:	00000097          	auipc	ra,0x0
    80000cac:	89a080e7          	jalr	-1894(ra) # 80000542 <panic>

0000000080000cb0 <release>:
{
    80000cb0:	1101                	add	sp,sp,-32
    80000cb2:	ec06                	sd	ra,24(sp)
    80000cb4:	e822                	sd	s0,16(sp)
    80000cb6:	e426                	sd	s1,8(sp)
    80000cb8:	1000                	add	s0,sp,32
    80000cba:	84aa                	mv	s1,a0
  if(!holding(lk))
    80000cbc:	00000097          	auipc	ra,0x0
    80000cc0:	ec6080e7          	jalr	-314(ra) # 80000b82 <holding>
    80000cc4:	c115                	beqz	a0,80000ce8 <release+0x38>
  lk->cpu = 0;
    80000cc6:	0004b823          	sd	zero,16(s1)
  __sync_synchronize();
    80000cca:	0ff0000f          	fence
  __sync_lock_release(&lk->locked);
    80000cce:	0f50000f          	fence	iorw,ow
    80000cd2:	0804a02f          	amoswap.w	zero,zero,(s1)
  pop_off();
    80000cd6:	00000097          	auipc	ra,0x0
    80000cda:	f7a080e7          	jalr	-134(ra) # 80000c50 <pop_off>
}
    80000cde:	60e2                	ld	ra,24(sp)
    80000ce0:	6442                	ld	s0,16(sp)
    80000ce2:	64a2                	ld	s1,8(sp)
    80000ce4:	6105                	add	sp,sp,32
    80000ce6:	8082                	ret
    panic("release");
    80000ce8:	00007517          	auipc	a0,0x7
    80000cec:	3a050513          	add	a0,a0,928 # 80008088 <digits+0x58>
    80000cf0:	00000097          	auipc	ra,0x0
    80000cf4:	852080e7          	jalr	-1966(ra) # 80000542 <panic>

0000000080000cf8 <memset>:
#include "types.h"

void*
memset(void *dst, int c, uint n)
{
    80000cf8:	1141                	add	sp,sp,-16
    80000cfa:	e422                	sd	s0,8(sp)
    80000cfc:	0800                	add	s0,sp,16
  char *cdst = (char *) dst;
  int i;
  for(i = 0; i < n; i++){
    80000cfe:	ca19                	beqz	a2,80000d14 <memset+0x1c>
    80000d00:	87aa                	mv	a5,a0
    80000d02:	1602                	sll	a2,a2,0x20
    80000d04:	9201                	srl	a2,a2,0x20
    80000d06:	00a60733          	add	a4,a2,a0
    cdst[i] = c;
    80000d0a:	00b78023          	sb	a1,0(a5)
  for(i = 0; i < n; i++){
    80000d0e:	0785                	add	a5,a5,1
    80000d10:	fee79de3          	bne	a5,a4,80000d0a <memset+0x12>
  }
  return dst;
}
    80000d14:	6422                	ld	s0,8(sp)
    80000d16:	0141                	add	sp,sp,16
    80000d18:	8082                	ret

0000000080000d1a <memcmp>:

int
memcmp(const void *v1, const void *v2, uint n)
{
    80000d1a:	1141                	add	sp,sp,-16
    80000d1c:	e422                	sd	s0,8(sp)
    80000d1e:	0800                	add	s0,sp,16
  const uchar *s1, *s2;

  s1 = v1;
  s2 = v2;
  while(n-- > 0){
    80000d20:	ca05                	beqz	a2,80000d50 <memcmp+0x36>
    80000d22:	fff6069b          	addw	a3,a2,-1 # fff <_entry-0x7ffff001>
    80000d26:	1682                	sll	a3,a3,0x20
    80000d28:	9281                	srl	a3,a3,0x20
    80000d2a:	0685                	add	a3,a3,1
    80000d2c:	96aa                	add	a3,a3,a0
    if(*s1 != *s2)
    80000d2e:	00054783          	lbu	a5,0(a0)
    80000d32:	0005c703          	lbu	a4,0(a1)
    80000d36:	00e79863          	bne	a5,a4,80000d46 <memcmp+0x2c>
      return *s1 - *s2;
    s1++, s2++;
    80000d3a:	0505                	add	a0,a0,1
    80000d3c:	0585                	add	a1,a1,1
  while(n-- > 0){
    80000d3e:	fed518e3          	bne	a0,a3,80000d2e <memcmp+0x14>
  }

  return 0;
    80000d42:	4501                	li	a0,0
    80000d44:	a019                	j	80000d4a <memcmp+0x30>
      return *s1 - *s2;
    80000d46:	40e7853b          	subw	a0,a5,a4
}
    80000d4a:	6422                	ld	s0,8(sp)
    80000d4c:	0141                	add	sp,sp,16
    80000d4e:	8082                	ret
  return 0;
    80000d50:	4501                	li	a0,0
    80000d52:	bfe5                	j	80000d4a <memcmp+0x30>

0000000080000d54 <memmove>:

void*
memmove(void *dst, const void *src, uint n)
{
    80000d54:	1141                	add	sp,sp,-16
    80000d56:	e422                	sd	s0,8(sp)
    80000d58:	0800                	add	s0,sp,16
  const char *s;
  char *d;

  s = src;
  d = dst;
  if(s < d && s + n > d){
    80000d5a:	02a5e563          	bltu	a1,a0,80000d84 <memmove+0x30>
    s += n;
    d += n;
    while(n-- > 0)
      *--d = *--s;
  } else
    while(n-- > 0)
    80000d5e:	fff6069b          	addw	a3,a2,-1
    80000d62:	ce11                	beqz	a2,80000d7e <memmove+0x2a>
    80000d64:	1682                	sll	a3,a3,0x20
    80000d66:	9281                	srl	a3,a3,0x20
    80000d68:	0685                	add	a3,a3,1
    80000d6a:	96ae                	add	a3,a3,a1
    80000d6c:	87aa                	mv	a5,a0
      *d++ = *s++;
    80000d6e:	0585                	add	a1,a1,1
    80000d70:	0785                	add	a5,a5,1
    80000d72:	fff5c703          	lbu	a4,-1(a1)
    80000d76:	fee78fa3          	sb	a4,-1(a5)
    while(n-- > 0)
    80000d7a:	fed59ae3          	bne	a1,a3,80000d6e <memmove+0x1a>

  return dst;
}
    80000d7e:	6422                	ld	s0,8(sp)
    80000d80:	0141                	add	sp,sp,16
    80000d82:	8082                	ret
  if(s < d && s + n > d){
    80000d84:	02061713          	sll	a4,a2,0x20
    80000d88:	9301                	srl	a4,a4,0x20
    80000d8a:	00e587b3          	add	a5,a1,a4
    80000d8e:	fcf578e3          	bgeu	a0,a5,80000d5e <memmove+0xa>
    d += n;
    80000d92:	972a                	add	a4,a4,a0
    while(n-- > 0)
    80000d94:	fff6069b          	addw	a3,a2,-1
    80000d98:	d27d                	beqz	a2,80000d7e <memmove+0x2a>
    80000d9a:	02069613          	sll	a2,a3,0x20
    80000d9e:	9201                	srl	a2,a2,0x20
    80000da0:	fff64613          	not	a2,a2
    80000da4:	963e                	add	a2,a2,a5
      *--d = *--s;
    80000da6:	17fd                	add	a5,a5,-1
    80000da8:	177d                	add	a4,a4,-1 # ffffffffffffefff <end+0xffffffff7ffd7fdf>
    80000daa:	0007c683          	lbu	a3,0(a5)
    80000dae:	00d70023          	sb	a3,0(a4)
    while(n-- > 0)
    80000db2:	fef61ae3          	bne	a2,a5,80000da6 <memmove+0x52>
    80000db6:	b7e1                	j	80000d7e <memmove+0x2a>

0000000080000db8 <memcpy>:

// memcpy exists to placate GCC.  Use memmove.
void*
memcpy(void *dst, const void *src, uint n)
{
    80000db8:	1141                	add	sp,sp,-16
    80000dba:	e406                	sd	ra,8(sp)
    80000dbc:	e022                	sd	s0,0(sp)
    80000dbe:	0800                	add	s0,sp,16
  return memmove(dst, src, n);
    80000dc0:	00000097          	auipc	ra,0x0
    80000dc4:	f94080e7          	jalr	-108(ra) # 80000d54 <memmove>
}
    80000dc8:	60a2                	ld	ra,8(sp)
    80000dca:	6402                	ld	s0,0(sp)
    80000dcc:	0141                	add	sp,sp,16
    80000dce:	8082                	ret

0000000080000dd0 <strncmp>:

int
strncmp(const char *p, const char *q, uint n)
{
    80000dd0:	1141                	add	sp,sp,-16
    80000dd2:	e422                	sd	s0,8(sp)
    80000dd4:	0800                	add	s0,sp,16
  while(n > 0 && *p && *p == *q)
    80000dd6:	ce11                	beqz	a2,80000df2 <strncmp+0x22>
    80000dd8:	00054783          	lbu	a5,0(a0)
    80000ddc:	cf89                	beqz	a5,80000df6 <strncmp+0x26>
    80000dde:	0005c703          	lbu	a4,0(a1)
    80000de2:	00f71a63          	bne	a4,a5,80000df6 <strncmp+0x26>
    n--, p++, q++;
    80000de6:	367d                	addw	a2,a2,-1
    80000de8:	0505                	add	a0,a0,1
    80000dea:	0585                	add	a1,a1,1
  while(n > 0 && *p && *p == *q)
    80000dec:	f675                	bnez	a2,80000dd8 <strncmp+0x8>
  if(n == 0)
    return 0;
    80000dee:	4501                	li	a0,0
    80000df0:	a809                	j	80000e02 <strncmp+0x32>
    80000df2:	4501                	li	a0,0
    80000df4:	a039                	j	80000e02 <strncmp+0x32>
  if(n == 0)
    80000df6:	ca09                	beqz	a2,80000e08 <strncmp+0x38>
  return (uchar)*p - (uchar)*q;
    80000df8:	00054503          	lbu	a0,0(a0)
    80000dfc:	0005c783          	lbu	a5,0(a1)
    80000e00:	9d1d                	subw	a0,a0,a5
}
    80000e02:	6422                	ld	s0,8(sp)
    80000e04:	0141                	add	sp,sp,16
    80000e06:	8082                	ret
    return 0;
    80000e08:	4501                	li	a0,0
    80000e0a:	bfe5                	j	80000e02 <strncmp+0x32>

0000000080000e0c <strncpy>:

char*
strncpy(char *s, const char *t, int n)
{
    80000e0c:	1141                	add	sp,sp,-16
    80000e0e:	e422                	sd	s0,8(sp)
    80000e10:	0800                	add	s0,sp,16
  char *os;

  os = s;
  while(n-- > 0 && (*s++ = *t++) != 0)
    80000e12:	87aa                	mv	a5,a0
    80000e14:	86b2                	mv	a3,a2
    80000e16:	367d                	addw	a2,a2,-1
    80000e18:	00d05963          	blez	a3,80000e2a <strncpy+0x1e>
    80000e1c:	0785                	add	a5,a5,1
    80000e1e:	0005c703          	lbu	a4,0(a1)
    80000e22:	fee78fa3          	sb	a4,-1(a5)
    80000e26:	0585                	add	a1,a1,1
    80000e28:	f775                	bnez	a4,80000e14 <strncpy+0x8>
    ;
  while(n-- > 0)
    80000e2a:	873e                	mv	a4,a5
    80000e2c:	9fb5                	addw	a5,a5,a3
    80000e2e:	37fd                	addw	a5,a5,-1
    80000e30:	00c05963          	blez	a2,80000e42 <strncpy+0x36>
    *s++ = 0;
    80000e34:	0705                	add	a4,a4,1
    80000e36:	fe070fa3          	sb	zero,-1(a4)
  while(n-- > 0)
    80000e3a:	40e786bb          	subw	a3,a5,a4
    80000e3e:	fed04be3          	bgtz	a3,80000e34 <strncpy+0x28>
  return os;
}
    80000e42:	6422                	ld	s0,8(sp)
    80000e44:	0141                	add	sp,sp,16
    80000e46:	8082                	ret

0000000080000e48 <safestrcpy>:

// Like strncpy but guaranteed to NUL-terminate.
char*
safestrcpy(char *s, const char *t, int n)
{
    80000e48:	1141                	add	sp,sp,-16
    80000e4a:	e422                	sd	s0,8(sp)
    80000e4c:	0800                	add	s0,sp,16
  char *os;

  os = s;
  if(n <= 0)
    80000e4e:	02c05363          	blez	a2,80000e74 <safestrcpy+0x2c>
    80000e52:	fff6069b          	addw	a3,a2,-1
    80000e56:	1682                	sll	a3,a3,0x20
    80000e58:	9281                	srl	a3,a3,0x20
    80000e5a:	96ae                	add	a3,a3,a1
    80000e5c:	87aa                	mv	a5,a0
    return os;
  while(--n > 0 && (*s++ = *t++) != 0)
    80000e5e:	00d58963          	beq	a1,a3,80000e70 <safestrcpy+0x28>
    80000e62:	0585                	add	a1,a1,1
    80000e64:	0785                	add	a5,a5,1
    80000e66:	fff5c703          	lbu	a4,-1(a1)
    80000e6a:	fee78fa3          	sb	a4,-1(a5)
    80000e6e:	fb65                	bnez	a4,80000e5e <safestrcpy+0x16>
    ;
  *s = 0;
    80000e70:	00078023          	sb	zero,0(a5)
  return os;
}
    80000e74:	6422                	ld	s0,8(sp)
    80000e76:	0141                	add	sp,sp,16
    80000e78:	8082                	ret

0000000080000e7a <strlen>:

int
strlen(const char *s)
{
    80000e7a:	1141                	add	sp,sp,-16
    80000e7c:	e422                	sd	s0,8(sp)
    80000e7e:	0800                	add	s0,sp,16
  int n;

  for(n = 0; s[n]; n++)
    80000e80:	00054783          	lbu	a5,0(a0)
    80000e84:	cf91                	beqz	a5,80000ea0 <strlen+0x26>
    80000e86:	0505                	add	a0,a0,1
    80000e88:	87aa                	mv	a5,a0
    80000e8a:	86be                	mv	a3,a5
    80000e8c:	0785                	add	a5,a5,1
    80000e8e:	fff7c703          	lbu	a4,-1(a5)
    80000e92:	ff65                	bnez	a4,80000e8a <strlen+0x10>
    80000e94:	40a6853b          	subw	a0,a3,a0
    80000e98:	2505                	addw	a0,a0,1
    ;
  return n;
}
    80000e9a:	6422                	ld	s0,8(sp)
    80000e9c:	0141                	add	sp,sp,16
    80000e9e:	8082                	ret
  for(n = 0; s[n]; n++)
    80000ea0:	4501                	li	a0,0
    80000ea2:	bfe5                	j	80000e9a <strlen+0x20>

0000000080000ea4 <main>:
volatile static int started = 0;

// start() jumps here in supervisor mode on all CPUs.
void
main()
{
    80000ea4:	1141                	add	sp,sp,-16
    80000ea6:	e406                	sd	ra,8(sp)
    80000ea8:	e022                	sd	s0,0(sp)
    80000eaa:	0800                	add	s0,sp,16
  if(cpuid() == 0){
    80000eac:	00001097          	auipc	ra,0x1
    80000eb0:	b60080e7          	jalr	-1184(ra) # 80001a0c <cpuid>
#endif    
    userinit();      // first user process
    __sync_synchronize();
    started = 1;
  } else {
    while(started == 0)
    80000eb4:	00008717          	auipc	a4,0x8
    80000eb8:	15870713          	add	a4,a4,344 # 8000900c <started>
  if(cpuid() == 0){
    80000ebc:	c139                	beqz	a0,80000f02 <main+0x5e>
    while(started == 0)
    80000ebe:	431c                	lw	a5,0(a4)
    80000ec0:	2781                	sext.w	a5,a5
    80000ec2:	dff5                	beqz	a5,80000ebe <main+0x1a>
      ;
    __sync_synchronize();
    80000ec4:	0ff0000f          	fence
    printf("hart %d starting\n", cpuid());
    80000ec8:	00001097          	auipc	ra,0x1
    80000ecc:	b44080e7          	jalr	-1212(ra) # 80001a0c <cpuid>
    80000ed0:	85aa                	mv	a1,a0
    80000ed2:	00007517          	auipc	a0,0x7
    80000ed6:	1d650513          	add	a0,a0,470 # 800080a8 <digits+0x78>
    80000eda:	fffff097          	auipc	ra,0xfffff
    80000ede:	6b2080e7          	jalr	1714(ra) # 8000058c <printf>
    kvminithart();    // turn on paging
    80000ee2:	00000097          	auipc	ra,0x0
    80000ee6:	1d6080e7          	jalr	470(ra) # 800010b8 <kvminithart>
    trapinithart();   // install kernel trap vector
    80000eea:	00002097          	auipc	ra,0x2
    80000eee:	a12080e7          	jalr	-1518(ra) # 800028fc <trapinithart>
    plicinithart();   // ask PLIC for device interrupts
    80000ef2:	00005097          	auipc	ra,0x5
    80000ef6:	f9e080e7          	jalr	-98(ra) # 80005e90 <plicinithart>
  }

  scheduler();        
    80000efa:	00001097          	auipc	ra,0x1
    80000efe:	2c4080e7          	jalr	708(ra) # 800021be <scheduler>
    consoleinit();
    80000f02:	fffff097          	auipc	ra,0xfffff
    80000f06:	550080e7          	jalr	1360(ra) # 80000452 <consoleinit>
    statsinit();
    80000f0a:	00005097          	auipc	ra,0x5
    80000f0e:	722080e7          	jalr	1826(ra) # 8000662c <statsinit>
    printfinit();
    80000f12:	00000097          	auipc	ra,0x0
    80000f16:	85a080e7          	jalr	-1958(ra) # 8000076c <printfinit>
    printf("\n");
    80000f1a:	00007517          	auipc	a0,0x7
    80000f1e:	19e50513          	add	a0,a0,414 # 800080b8 <digits+0x88>
    80000f22:	fffff097          	auipc	ra,0xfffff
    80000f26:	66a080e7          	jalr	1642(ra) # 8000058c <printf>
    printf("xv6 kernel is booting\n");
    80000f2a:	00007517          	auipc	a0,0x7
    80000f2e:	16650513          	add	a0,a0,358 # 80008090 <digits+0x60>
    80000f32:	fffff097          	auipc	ra,0xfffff
    80000f36:	65a080e7          	jalr	1626(ra) # 8000058c <printf>
    printf("\n");
    80000f3a:	00007517          	auipc	a0,0x7
    80000f3e:	17e50513          	add	a0,a0,382 # 800080b8 <digits+0x88>
    80000f42:	fffff097          	auipc	ra,0xfffff
    80000f46:	64a080e7          	jalr	1610(ra) # 8000058c <printf>
    kinit();         // physical page allocator
    80000f4a:	00000097          	auipc	ra,0x0
    80000f4e:	b86080e7          	jalr	-1146(ra) # 80000ad0 <kinit>
    kvminit();       // create kernel page table
    80000f52:	00000097          	auipc	ra,0x0
    80000f56:	39e080e7          	jalr	926(ra) # 800012f0 <kvminit>
    kvminithart();   // turn on paging
    80000f5a:	00000097          	auipc	ra,0x0
    80000f5e:	15e080e7          	jalr	350(ra) # 800010b8 <kvminithart>
    procinit();      // process table
    80000f62:	00001097          	auipc	ra,0x1
    80000f66:	a42080e7          	jalr	-1470(ra) # 800019a4 <procinit>
    trapinit();      // trap vectors
    80000f6a:	00002097          	auipc	ra,0x2
    80000f6e:	96a080e7          	jalr	-1686(ra) # 800028d4 <trapinit>
    trapinithart();  // install kernel trap vector
    80000f72:	00002097          	auipc	ra,0x2
    80000f76:	98a080e7          	jalr	-1654(ra) # 800028fc <trapinithart>
    plicinit();      // set up interrupt controller
    80000f7a:	00005097          	auipc	ra,0x5
    80000f7e:	f00080e7          	jalr	-256(ra) # 80005e7a <plicinit>
    plicinithart();  // ask PLIC for device interrupts
    80000f82:	00005097          	auipc	ra,0x5
    80000f86:	f0e080e7          	jalr	-242(ra) # 80005e90 <plicinithart>
    binit();         // buffer cache
    80000f8a:	00002097          	auipc	ra,0x2
    80000f8e:	0b8080e7          	jalr	184(ra) # 80003042 <binit>
    iinit();         // inode cache
    80000f92:	00002097          	auipc	ra,0x2
    80000f96:	744080e7          	jalr	1860(ra) # 800036d6 <iinit>
    fileinit();      // file table
    80000f9a:	00003097          	auipc	ra,0x3
    80000f9e:	6b6080e7          	jalr	1718(ra) # 80004650 <fileinit>
    virtio_disk_init(); // emulated hard disk
    80000fa2:	00005097          	auipc	ra,0x5
    80000fa6:	ff4080e7          	jalr	-12(ra) # 80005f96 <virtio_disk_init>
    userinit();      // first user process
    80000faa:	00001097          	auipc	ra,0x1
    80000fae:	efa080e7          	jalr	-262(ra) # 80001ea4 <userinit>
    __sync_synchronize();
    80000fb2:	0ff0000f          	fence
    started = 1;
    80000fb6:	4785                	li	a5,1
    80000fb8:	00008717          	auipc	a4,0x8
    80000fbc:	04f72a23          	sw	a5,84(a4) # 8000900c <started>
    80000fc0:	bf2d                	j	80000efa <main+0x56>

0000000080000fc2 <_vmprint>:
extern char etext[];  // kernel.ld sets this to end of kernel code.

extern char trampoline[]; // trampoline.S
void
_vmprint(pagetable_t pagetable,int level)
{
    80000fc2:	711d                	add	sp,sp,-96
    80000fc4:	ec86                	sd	ra,88(sp)
    80000fc6:	e8a2                	sd	s0,80(sp)
    80000fc8:	e4a6                	sd	s1,72(sp)
    80000fca:	e0ca                	sd	s2,64(sp)
    80000fcc:	fc4e                	sd	s3,56(sp)
    80000fce:	f852                	sd	s4,48(sp)
    80000fd0:	f456                	sd	s5,40(sp)
    80000fd2:	f05a                	sd	s6,32(sp)
    80000fd4:	ec5e                	sd	s7,24(sp)
    80000fd6:	e862                	sd	s8,16(sp)
    80000fd8:	e466                	sd	s9,8(sp)
    80000fda:	e06a                	sd	s10,0(sp)
    80000fdc:	1080                	add	s0,sp,96
    80000fde:	8aae                	mv	s5,a1
  // there are 2^9 = 512 PTEs in a page table.
  for(int i = 0; i < 512; i++){
    80000fe0:	8a2a                	mv	s4,a0
    80000fe2:	4981                	li	s3,0
    pte_t pte = pagetable[i];
    if((pte & PTE_V)){
      for(int j=0;j<level;j++){
    80000fe4:	4d01                	li	s10,0
        if(j) printf(" ");
        printf("..");
    80000fe6:	00007b17          	auipc	s6,0x7
    80000fea:	0e2b0b13          	add	s6,s6,226 # 800080c8 <digits+0x98>
        if(j) printf(" ");
    80000fee:	00007b97          	auipc	s7,0x7
    80000ff2:	0d2b8b93          	add	s7,s7,210 # 800080c0 <digits+0x90>
      }
      uint64 child = PTE2PA(pte);
      printf("%d: pte %p pa %p\n", i,pte,child);
    80000ff6:	00007c97          	auipc	s9,0x7
    80000ffa:	0dac8c93          	add	s9,s9,218 # 800080d0 <digits+0xa0>
  for(int i = 0; i < 512; i++){
    80000ffe:	20000c13          	li	s8,512
    80001002:	a025                	j	8000102a <_vmprint+0x68>
      uint64 child = PTE2PA(pte);
    80001004:	00a95493          	srl	s1,s2,0xa
    80001008:	04b2                	sll	s1,s1,0xc
      printf("%d: pte %p pa %p\n", i,pte,child);
    8000100a:	86a6                	mv	a3,s1
    8000100c:	864a                	mv	a2,s2
    8000100e:	85ce                	mv	a1,s3
    80001010:	8566                	mv	a0,s9
    80001012:	fffff097          	auipc	ra,0xfffff
    80001016:	57a080e7          	jalr	1402(ra) # 8000058c <printf>
      if((pte & (PTE_R|PTE_W|PTE_X)) == 0) _vmprint((pagetable_t)child,level+1);
    8000101a:	00e97913          	and	s2,s2,14
    8000101e:	02090d63          	beqz	s2,80001058 <_vmprint+0x96>
  for(int i = 0; i < 512; i++){
    80001022:	2985                	addw	s3,s3,1 # 1001 <_entry-0x7fffefff>
    80001024:	0a21                	add	s4,s4,8 # fffffffffffff008 <end+0xffffffff7ffd7fe8>
    80001026:	05898163          	beq	s3,s8,80001068 <_vmprint+0xa6>
    pte_t pte = pagetable[i];
    8000102a:	000a3903          	ld	s2,0(s4)
    if((pte & PTE_V)){
    8000102e:	00197793          	and	a5,s2,1
    80001032:	dbe5                	beqz	a5,80001022 <_vmprint+0x60>
      for(int j=0;j<level;j++){
    80001034:	84ea                	mv	s1,s10
    80001036:	fd5057e3          	blez	s5,80001004 <_vmprint+0x42>
        printf("..");
    8000103a:	855a                	mv	a0,s6
    8000103c:	fffff097          	auipc	ra,0xfffff
    80001040:	550080e7          	jalr	1360(ra) # 8000058c <printf>
      for(int j=0;j<level;j++){
    80001044:	2485                	addw	s1,s1,1
    80001046:	fa9a8fe3          	beq	s5,s1,80001004 <_vmprint+0x42>
        if(j) printf(" ");
    8000104a:	d8e5                	beqz	s1,8000103a <_vmprint+0x78>
    8000104c:	855e                	mv	a0,s7
    8000104e:	fffff097          	auipc	ra,0xfffff
    80001052:	53e080e7          	jalr	1342(ra) # 8000058c <printf>
    80001056:	b7d5                	j	8000103a <_vmprint+0x78>
      if((pte & (PTE_R|PTE_W|PTE_X)) == 0) _vmprint((pagetable_t)child,level+1);
    80001058:	001a859b          	addw	a1,s5,1
    8000105c:	8526                	mv	a0,s1
    8000105e:	00000097          	auipc	ra,0x0
    80001062:	f64080e7          	jalr	-156(ra) # 80000fc2 <_vmprint>
    80001066:	bf75                	j	80001022 <_vmprint+0x60>
    }
  }
}
    80001068:	60e6                	ld	ra,88(sp)
    8000106a:	6446                	ld	s0,80(sp)
    8000106c:	64a6                	ld	s1,72(sp)
    8000106e:	6906                	ld	s2,64(sp)
    80001070:	79e2                	ld	s3,56(sp)
    80001072:	7a42                	ld	s4,48(sp)
    80001074:	7aa2                	ld	s5,40(sp)
    80001076:	7b02                	ld	s6,32(sp)
    80001078:	6be2                	ld	s7,24(sp)
    8000107a:	6c42                	ld	s8,16(sp)
    8000107c:	6ca2                	ld	s9,8(sp)
    8000107e:	6d02                	ld	s10,0(sp)
    80001080:	6125                	add	sp,sp,96
    80001082:	8082                	ret

0000000080001084 <vmprint>:
void
vmprint(pagetable_t pagetable)
{
    80001084:	1101                	add	sp,sp,-32
    80001086:	ec06                	sd	ra,24(sp)
    80001088:	e822                	sd	s0,16(sp)
    8000108a:	e426                	sd	s1,8(sp)
    8000108c:	1000                	add	s0,sp,32
    8000108e:	84aa                	mv	s1,a0
  printf("page table %p\n",pagetable);
    80001090:	85aa                	mv	a1,a0
    80001092:	00007517          	auipc	a0,0x7
    80001096:	05650513          	add	a0,a0,86 # 800080e8 <digits+0xb8>
    8000109a:	fffff097          	auipc	ra,0xfffff
    8000109e:	4f2080e7          	jalr	1266(ra) # 8000058c <printf>
  _vmprint(pagetable,1);
    800010a2:	4585                	li	a1,1
    800010a4:	8526                	mv	a0,s1
    800010a6:	00000097          	auipc	ra,0x0
    800010aa:	f1c080e7          	jalr	-228(ra) # 80000fc2 <_vmprint>
}
    800010ae:	60e2                	ld	ra,24(sp)
    800010b0:	6442                	ld	s0,16(sp)
    800010b2:	64a2                	ld	s1,8(sp)
    800010b4:	6105                	add	sp,sp,32
    800010b6:	8082                	ret

00000000800010b8 <kvminithart>:

// Switch h/w page table register to the kernel's page table,
// and enable paging.
void
kvminithart()
{
    800010b8:	1141                	add	sp,sp,-16
    800010ba:	e422                	sd	s0,8(sp)
    800010bc:	0800                	add	s0,sp,16
  w_satp(MAKE_SATP(kernel_pagetable));
    800010be:	00008797          	auipc	a5,0x8
    800010c2:	f527b783          	ld	a5,-174(a5) # 80009010 <kernel_pagetable>
    800010c6:	83b1                	srl	a5,a5,0xc
    800010c8:	577d                	li	a4,-1
    800010ca:	177e                	sll	a4,a4,0x3f
    800010cc:	8fd9                	or	a5,a5,a4
  asm volatile("csrw satp, %0" : : "r" (x));
    800010ce:	18079073          	csrw	satp,a5
// flush the TLB.
static inline void
sfence_vma()
{
  // the zero, zero means flush all TLB entries.
  asm volatile("sfence.vma zero, zero");
    800010d2:	12000073          	sfence.vma
  sfence_vma();
}
    800010d6:	6422                	ld	s0,8(sp)
    800010d8:	0141                	add	sp,sp,16
    800010da:	8082                	ret

00000000800010dc <walk>:
//   21..29 -- 9 bits of level-1 index.
//   12..20 -- 9 bits of level-0 index.
//    0..11 -- 12 bits of byte offset within the page.
pte_t *
walk(pagetable_t pagetable, uint64 va, int alloc)
{
    800010dc:	7139                	add	sp,sp,-64
    800010de:	fc06                	sd	ra,56(sp)
    800010e0:	f822                	sd	s0,48(sp)
    800010e2:	f426                	sd	s1,40(sp)
    800010e4:	f04a                	sd	s2,32(sp)
    800010e6:	ec4e                	sd	s3,24(sp)
    800010e8:	e852                	sd	s4,16(sp)
    800010ea:	e456                	sd	s5,8(sp)
    800010ec:	e05a                	sd	s6,0(sp)
    800010ee:	0080                	add	s0,sp,64
    800010f0:	84aa                	mv	s1,a0
    800010f2:	89ae                	mv	s3,a1
    800010f4:	8ab2                	mv	s5,a2
  if(va >= MAXVA)
    800010f6:	57fd                	li	a5,-1
    800010f8:	83e9                	srl	a5,a5,0x1a
    800010fa:	4a79                	li	s4,30
    panic("walk");

  for(int level = 2; level > 0; level--) {
    800010fc:	4b31                	li	s6,12
  if(va >= MAXVA)
    800010fe:	04b7f263          	bgeu	a5,a1,80001142 <walk+0x66>
    panic("walk");
    80001102:	00007517          	auipc	a0,0x7
    80001106:	ff650513          	add	a0,a0,-10 # 800080f8 <digits+0xc8>
    8000110a:	fffff097          	auipc	ra,0xfffff
    8000110e:	438080e7          	jalr	1080(ra) # 80000542 <panic>
    pte_t *pte = &pagetable[PX(level, va)];
    if(*pte & PTE_V) {
      pagetable = (pagetable_t)PTE2PA(*pte);
    } else {
      if(!alloc || (pagetable = (pde_t*)kalloc()) == 0)
    80001112:	060a8663          	beqz	s5,8000117e <walk+0xa2>
    80001116:	00000097          	auipc	ra,0x0
    8000111a:	9f6080e7          	jalr	-1546(ra) # 80000b0c <kalloc>
    8000111e:	84aa                	mv	s1,a0
    80001120:	c529                	beqz	a0,8000116a <walk+0x8e>
        return 0;
      memset(pagetable, 0, PGSIZE);
    80001122:	6605                	lui	a2,0x1
    80001124:	4581                	li	a1,0
    80001126:	00000097          	auipc	ra,0x0
    8000112a:	bd2080e7          	jalr	-1070(ra) # 80000cf8 <memset>
      *pte = PA2PTE(pagetable) | PTE_V;
    8000112e:	00c4d793          	srl	a5,s1,0xc
    80001132:	07aa                	sll	a5,a5,0xa
    80001134:	0017e793          	or	a5,a5,1
    80001138:	00f93023          	sd	a5,0(s2)
  for(int level = 2; level > 0; level--) {
    8000113c:	3a5d                	addw	s4,s4,-9
    8000113e:	036a0063          	beq	s4,s6,8000115e <walk+0x82>
    pte_t *pte = &pagetable[PX(level, va)];
    80001142:	0149d933          	srl	s2,s3,s4
    80001146:	1ff97913          	and	s2,s2,511
    8000114a:	090e                	sll	s2,s2,0x3
    8000114c:	9926                	add	s2,s2,s1
    if(*pte & PTE_V) {
    8000114e:	00093483          	ld	s1,0(s2)
    80001152:	0014f793          	and	a5,s1,1
    80001156:	dfd5                	beqz	a5,80001112 <walk+0x36>
      pagetable = (pagetable_t)PTE2PA(*pte);
    80001158:	80a9                	srl	s1,s1,0xa
    8000115a:	04b2                	sll	s1,s1,0xc
    8000115c:	b7c5                	j	8000113c <walk+0x60>
    }
  }
  return &pagetable[PX(0, va)];
    8000115e:	00c9d513          	srl	a0,s3,0xc
    80001162:	1ff57513          	and	a0,a0,511
    80001166:	050e                	sll	a0,a0,0x3
    80001168:	9526                	add	a0,a0,s1
}
    8000116a:	70e2                	ld	ra,56(sp)
    8000116c:	7442                	ld	s0,48(sp)
    8000116e:	74a2                	ld	s1,40(sp)
    80001170:	7902                	ld	s2,32(sp)
    80001172:	69e2                	ld	s3,24(sp)
    80001174:	6a42                	ld	s4,16(sp)
    80001176:	6aa2                	ld	s5,8(sp)
    80001178:	6b02                	ld	s6,0(sp)
    8000117a:	6121                	add	sp,sp,64
    8000117c:	8082                	ret
        return 0;
    8000117e:	4501                	li	a0,0
    80001180:	b7ed                	j	8000116a <walk+0x8e>

0000000080001182 <walkaddr>:
walkaddr(pagetable_t pagetable, uint64 va)
{
  pte_t *pte;
  uint64 pa;

  if(va >= MAXVA)
    80001182:	57fd                	li	a5,-1
    80001184:	83e9                	srl	a5,a5,0x1a
    80001186:	00b7f463          	bgeu	a5,a1,8000118e <walkaddr+0xc>
    return 0;
    8000118a:	4501                	li	a0,0
    return 0;
  if((*pte & PTE_U) == 0)
    return 0;
  pa = PTE2PA(*pte);
  return pa;
}
    8000118c:	8082                	ret
{
    8000118e:	1141                	add	sp,sp,-16
    80001190:	e406                	sd	ra,8(sp)
    80001192:	e022                	sd	s0,0(sp)
    80001194:	0800                	add	s0,sp,16
  pte = walk(pagetable, va, 0);
    80001196:	4601                	li	a2,0
    80001198:	00000097          	auipc	ra,0x0
    8000119c:	f44080e7          	jalr	-188(ra) # 800010dc <walk>
  if(pte == 0)
    800011a0:	c105                	beqz	a0,800011c0 <walkaddr+0x3e>
  if((*pte & PTE_V) == 0)
    800011a2:	611c                	ld	a5,0(a0)
  if((*pte & PTE_U) == 0)
    800011a4:	0117f693          	and	a3,a5,17
    800011a8:	4745                	li	a4,17
    return 0;
    800011aa:	4501                	li	a0,0
  if((*pte & PTE_U) == 0)
    800011ac:	00e68663          	beq	a3,a4,800011b8 <walkaddr+0x36>
}
    800011b0:	60a2                	ld	ra,8(sp)
    800011b2:	6402                	ld	s0,0(sp)
    800011b4:	0141                	add	sp,sp,16
    800011b6:	8082                	ret
  pa = PTE2PA(*pte);
    800011b8:	83a9                	srl	a5,a5,0xa
    800011ba:	00c79513          	sll	a0,a5,0xc
  return pa;
    800011be:	bfcd                	j	800011b0 <walkaddr+0x2e>
    return 0;
    800011c0:	4501                	li	a0,0
    800011c2:	b7fd                	j	800011b0 <walkaddr+0x2e>

00000000800011c4 <kvmpa>:
// a physical address. only needed for
// addresses on the stack.
// assumes va is page aligned.
uint64
kvmpa(uint64 va)
{
    800011c4:	1101                	add	sp,sp,-32
    800011c6:	ec06                	sd	ra,24(sp)
    800011c8:	e822                	sd	s0,16(sp)
    800011ca:	e426                	sd	s1,8(sp)
    800011cc:	e04a                	sd	s2,0(sp)
    800011ce:	1000                	add	s0,sp,32
    800011d0:	84aa                	mv	s1,a0
  uint64 off = va % PGSIZE;
    800011d2:	1552                	sll	a0,a0,0x34
    800011d4:	03455913          	srl	s2,a0,0x34
  pte_t *pte;
  uint64 pa;
  
  pte = walk(myproc()->ukpagetable, va, 0);
    800011d8:	00001097          	auipc	ra,0x1
    800011dc:	860080e7          	jalr	-1952(ra) # 80001a38 <myproc>
    800011e0:	4601                	li	a2,0
    800011e2:	85a6                	mv	a1,s1
    800011e4:	6d28                	ld	a0,88(a0)
    800011e6:	00000097          	auipc	ra,0x0
    800011ea:	ef6080e7          	jalr	-266(ra) # 800010dc <walk>
  if(pte == 0)
    800011ee:	cd11                	beqz	a0,8000120a <kvmpa+0x46>
    panic("kvmpa");
  if((*pte & PTE_V) == 0)
    800011f0:	6108                	ld	a0,0(a0)
    800011f2:	00157793          	and	a5,a0,1
    800011f6:	c395                	beqz	a5,8000121a <kvmpa+0x56>
    panic("kvmpa");
  pa = PTE2PA(*pte);
    800011f8:	8129                	srl	a0,a0,0xa
    800011fa:	0532                	sll	a0,a0,0xc
  return pa+off;
}
    800011fc:	954a                	add	a0,a0,s2
    800011fe:	60e2                	ld	ra,24(sp)
    80001200:	6442                	ld	s0,16(sp)
    80001202:	64a2                	ld	s1,8(sp)
    80001204:	6902                	ld	s2,0(sp)
    80001206:	6105                	add	sp,sp,32
    80001208:	8082                	ret
    panic("kvmpa");
    8000120a:	00007517          	auipc	a0,0x7
    8000120e:	ef650513          	add	a0,a0,-266 # 80008100 <digits+0xd0>
    80001212:	fffff097          	auipc	ra,0xfffff
    80001216:	330080e7          	jalr	816(ra) # 80000542 <panic>
    panic("kvmpa");
    8000121a:	00007517          	auipc	a0,0x7
    8000121e:	ee650513          	add	a0,a0,-282 # 80008100 <digits+0xd0>
    80001222:	fffff097          	auipc	ra,0xfffff
    80001226:	320080e7          	jalr	800(ra) # 80000542 <panic>

000000008000122a <mappages>:
// physical addresses starting at pa. va and size might not
// be page-aligned. Returns 0 on success, -1 if walk() couldn't
// allocate a needed page-table page.
int
mappages(pagetable_t pagetable, uint64 va, uint64 size, uint64 pa, int perm)
{
    8000122a:	715d                	add	sp,sp,-80
    8000122c:	e486                	sd	ra,72(sp)
    8000122e:	e0a2                	sd	s0,64(sp)
    80001230:	fc26                	sd	s1,56(sp)
    80001232:	f84a                	sd	s2,48(sp)
    80001234:	f44e                	sd	s3,40(sp)
    80001236:	f052                	sd	s4,32(sp)
    80001238:	ec56                	sd	s5,24(sp)
    8000123a:	e85a                	sd	s6,16(sp)
    8000123c:	e45e                	sd	s7,8(sp)
    8000123e:	0880                	add	s0,sp,80
    80001240:	8aaa                	mv	s5,a0
    80001242:	8b3a                	mv	s6,a4
  uint64 a, last;
  pte_t *pte;

  a = PGROUNDDOWN(va);
    80001244:	777d                	lui	a4,0xfffff
    80001246:	00e5f7b3          	and	a5,a1,a4
  last = PGROUNDDOWN(va + size - 1);
    8000124a:	fff60993          	add	s3,a2,-1 # fff <_entry-0x7ffff001>
    8000124e:	99ae                	add	s3,s3,a1
    80001250:	00e9f9b3          	and	s3,s3,a4
  a = PGROUNDDOWN(va);
    80001254:	893e                	mv	s2,a5
    80001256:	40f68a33          	sub	s4,a3,a5
    if(*pte & PTE_V)
      panic("remap");
    *pte = PA2PTE(pa) | perm | PTE_V;
    if(a == last)
      break;
    a += PGSIZE;
    8000125a:	6b85                	lui	s7,0x1
    8000125c:	012a04b3          	add	s1,s4,s2
    if((pte = walk(pagetable, a, 1)) == 0)
    80001260:	4605                	li	a2,1
    80001262:	85ca                	mv	a1,s2
    80001264:	8556                	mv	a0,s5
    80001266:	00000097          	auipc	ra,0x0
    8000126a:	e76080e7          	jalr	-394(ra) # 800010dc <walk>
    8000126e:	c51d                	beqz	a0,8000129c <mappages+0x72>
    if(*pte & PTE_V)
    80001270:	611c                	ld	a5,0(a0)
    80001272:	8b85                	and	a5,a5,1
    80001274:	ef81                	bnez	a5,8000128c <mappages+0x62>
    *pte = PA2PTE(pa) | perm | PTE_V;
    80001276:	80b1                	srl	s1,s1,0xc
    80001278:	04aa                	sll	s1,s1,0xa
    8000127a:	0164e4b3          	or	s1,s1,s6
    8000127e:	0014e493          	or	s1,s1,1
    80001282:	e104                	sd	s1,0(a0)
    if(a == last)
    80001284:	03390863          	beq	s2,s3,800012b4 <mappages+0x8a>
    a += PGSIZE;
    80001288:	995e                	add	s2,s2,s7
    if((pte = walk(pagetable, a, 1)) == 0)
    8000128a:	bfc9                	j	8000125c <mappages+0x32>
      panic("remap");
    8000128c:	00007517          	auipc	a0,0x7
    80001290:	e7c50513          	add	a0,a0,-388 # 80008108 <digits+0xd8>
    80001294:	fffff097          	auipc	ra,0xfffff
    80001298:	2ae080e7          	jalr	686(ra) # 80000542 <panic>
      return -1;
    8000129c:	557d                	li	a0,-1
    pa += PGSIZE;
  }
  return 0;
}
    8000129e:	60a6                	ld	ra,72(sp)
    800012a0:	6406                	ld	s0,64(sp)
    800012a2:	74e2                	ld	s1,56(sp)
    800012a4:	7942                	ld	s2,48(sp)
    800012a6:	79a2                	ld	s3,40(sp)
    800012a8:	7a02                	ld	s4,32(sp)
    800012aa:	6ae2                	ld	s5,24(sp)
    800012ac:	6b42                	ld	s6,16(sp)
    800012ae:	6ba2                	ld	s7,8(sp)
    800012b0:	6161                	add	sp,sp,80
    800012b2:	8082                	ret
  return 0;
    800012b4:	4501                	li	a0,0
    800012b6:	b7e5                	j	8000129e <mappages+0x74>

00000000800012b8 <kvmmap>:
{
    800012b8:	1141                	add	sp,sp,-16
    800012ba:	e406                	sd	ra,8(sp)
    800012bc:	e022                	sd	s0,0(sp)
    800012be:	0800                	add	s0,sp,16
    800012c0:	8736                	mv	a4,a3
  if(mappages(kernel_pagetable, va, sz, pa, perm) != 0)
    800012c2:	86ae                	mv	a3,a1
    800012c4:	85aa                	mv	a1,a0
    800012c6:	00008517          	auipc	a0,0x8
    800012ca:	d4a53503          	ld	a0,-694(a0) # 80009010 <kernel_pagetable>
    800012ce:	00000097          	auipc	ra,0x0
    800012d2:	f5c080e7          	jalr	-164(ra) # 8000122a <mappages>
    800012d6:	e509                	bnez	a0,800012e0 <kvmmap+0x28>
}
    800012d8:	60a2                	ld	ra,8(sp)
    800012da:	6402                	ld	s0,0(sp)
    800012dc:	0141                	add	sp,sp,16
    800012de:	8082                	ret
    panic("kvmmap");
    800012e0:	00007517          	auipc	a0,0x7
    800012e4:	e3050513          	add	a0,a0,-464 # 80008110 <digits+0xe0>
    800012e8:	fffff097          	auipc	ra,0xfffff
    800012ec:	25a080e7          	jalr	602(ra) # 80000542 <panic>

00000000800012f0 <kvminit>:
{
    800012f0:	1101                	add	sp,sp,-32
    800012f2:	ec06                	sd	ra,24(sp)
    800012f4:	e822                	sd	s0,16(sp)
    800012f6:	e426                	sd	s1,8(sp)
    800012f8:	1000                	add	s0,sp,32
  kernel_pagetable = (pagetable_t) kalloc();
    800012fa:	00000097          	auipc	ra,0x0
    800012fe:	812080e7          	jalr	-2030(ra) # 80000b0c <kalloc>
    80001302:	00008717          	auipc	a4,0x8
    80001306:	d0a73723          	sd	a0,-754(a4) # 80009010 <kernel_pagetable>
  memset(kernel_pagetable, 0, PGSIZE);
    8000130a:	6605                	lui	a2,0x1
    8000130c:	4581                	li	a1,0
    8000130e:	00000097          	auipc	ra,0x0
    80001312:	9ea080e7          	jalr	-1558(ra) # 80000cf8 <memset>
  kvmmap(UART0, UART0, PGSIZE, PTE_R | PTE_W);
    80001316:	4699                	li	a3,6
    80001318:	6605                	lui	a2,0x1
    8000131a:	100005b7          	lui	a1,0x10000
    8000131e:	10000537          	lui	a0,0x10000
    80001322:	00000097          	auipc	ra,0x0
    80001326:	f96080e7          	jalr	-106(ra) # 800012b8 <kvmmap>
  kvmmap(VIRTIO0, VIRTIO0, PGSIZE, PTE_R | PTE_W);
    8000132a:	4699                	li	a3,6
    8000132c:	6605                	lui	a2,0x1
    8000132e:	100015b7          	lui	a1,0x10001
    80001332:	10001537          	lui	a0,0x10001
    80001336:	00000097          	auipc	ra,0x0
    8000133a:	f82080e7          	jalr	-126(ra) # 800012b8 <kvmmap>
  kvmmap(CLINT, CLINT, 0x10000, PTE_R | PTE_W);
    8000133e:	4699                	li	a3,6
    80001340:	6641                	lui	a2,0x10
    80001342:	020005b7          	lui	a1,0x2000
    80001346:	02000537          	lui	a0,0x2000
    8000134a:	00000097          	auipc	ra,0x0
    8000134e:	f6e080e7          	jalr	-146(ra) # 800012b8 <kvmmap>
  kvmmap(PLIC, PLIC, 0x400000, PTE_R | PTE_W);
    80001352:	4699                	li	a3,6
    80001354:	00400637          	lui	a2,0x400
    80001358:	0c0005b7          	lui	a1,0xc000
    8000135c:	0c000537          	lui	a0,0xc000
    80001360:	00000097          	auipc	ra,0x0
    80001364:	f58080e7          	jalr	-168(ra) # 800012b8 <kvmmap>
  kvmmap(KERNBASE, KERNBASE, (uint64)etext-KERNBASE, PTE_R | PTE_X);
    80001368:	00007497          	auipc	s1,0x7
    8000136c:	c9848493          	add	s1,s1,-872 # 80008000 <etext>
    80001370:	46a9                	li	a3,10
    80001372:	80007617          	auipc	a2,0x80007
    80001376:	c8e60613          	add	a2,a2,-882 # 8000 <_entry-0x7fff8000>
    8000137a:	4585                	li	a1,1
    8000137c:	05fe                	sll	a1,a1,0x1f
    8000137e:	852e                	mv	a0,a1
    80001380:	00000097          	auipc	ra,0x0
    80001384:	f38080e7          	jalr	-200(ra) # 800012b8 <kvmmap>
  kvmmap((uint64)etext, (uint64)etext, PHYSTOP-(uint64)etext, PTE_R | PTE_W);
    80001388:	4699                	li	a3,6
    8000138a:	4645                	li	a2,17
    8000138c:	066e                	sll	a2,a2,0x1b
    8000138e:	8e05                	sub	a2,a2,s1
    80001390:	85a6                	mv	a1,s1
    80001392:	8526                	mv	a0,s1
    80001394:	00000097          	auipc	ra,0x0
    80001398:	f24080e7          	jalr	-220(ra) # 800012b8 <kvmmap>
  kvmmap(TRAMPOLINE, (uint64)trampoline, PGSIZE, PTE_R | PTE_X);
    8000139c:	46a9                	li	a3,10
    8000139e:	6605                	lui	a2,0x1
    800013a0:	00006597          	auipc	a1,0x6
    800013a4:	c6058593          	add	a1,a1,-928 # 80007000 <_trampoline>
    800013a8:	04000537          	lui	a0,0x4000
    800013ac:	157d                	add	a0,a0,-1 # 3ffffff <_entry-0x7c000001>
    800013ae:	0532                	sll	a0,a0,0xc
    800013b0:	00000097          	auipc	ra,0x0
    800013b4:	f08080e7          	jalr	-248(ra) # 800012b8 <kvmmap>
}
    800013b8:	60e2                	ld	ra,24(sp)
    800013ba:	6442                	ld	s0,16(sp)
    800013bc:	64a2                	ld	s1,8(sp)
    800013be:	6105                	add	sp,sp,32
    800013c0:	8082                	ret

00000000800013c2 <ukvmmap>:
{
    800013c2:	1141                	add	sp,sp,-16
    800013c4:	e406                	sd	ra,8(sp)
    800013c6:	e022                	sd	s0,0(sp)
    800013c8:	0800                	add	s0,sp,16
    800013ca:	87b6                	mv	a5,a3
  if(mappages(ukpagetable, va, sz, pa, perm) != 0)
    800013cc:	86b2                	mv	a3,a2
    800013ce:	863e                	mv	a2,a5
    800013d0:	00000097          	auipc	ra,0x0
    800013d4:	e5a080e7          	jalr	-422(ra) # 8000122a <mappages>
    800013d8:	e509                	bnez	a0,800013e2 <ukvmmap+0x20>
}
    800013da:	60a2                	ld	ra,8(sp)
    800013dc:	6402                	ld	s0,0(sp)
    800013de:	0141                	add	sp,sp,16
    800013e0:	8082                	ret
    panic("kvmmap");
    800013e2:	00007517          	auipc	a0,0x7
    800013e6:	d2e50513          	add	a0,a0,-722 # 80008110 <digits+0xe0>
    800013ea:	fffff097          	auipc	ra,0xfffff
    800013ee:	158080e7          	jalr	344(ra) # 80000542 <panic>

00000000800013f2 <uvmunmap>:
// Remove npages of mappings starting from va. va must be
// page-aligned. The mappings must exist.
// Optionally free the physical memory.
void
uvmunmap(pagetable_t pagetable, uint64 va, uint64 npages, int do_free)
{
    800013f2:	715d                	add	sp,sp,-80
    800013f4:	e486                	sd	ra,72(sp)
    800013f6:	e0a2                	sd	s0,64(sp)
    800013f8:	fc26                	sd	s1,56(sp)
    800013fa:	f84a                	sd	s2,48(sp)
    800013fc:	f44e                	sd	s3,40(sp)
    800013fe:	f052                	sd	s4,32(sp)
    80001400:	ec56                	sd	s5,24(sp)
    80001402:	e85a                	sd	s6,16(sp)
    80001404:	e45e                	sd	s7,8(sp)
    80001406:	0880                	add	s0,sp,80
  uint64 a;
  pte_t *pte;

  if((va % PGSIZE) != 0)
    80001408:	03459793          	sll	a5,a1,0x34
    8000140c:	e795                	bnez	a5,80001438 <uvmunmap+0x46>
    8000140e:	8a2a                	mv	s4,a0
    80001410:	892e                	mv	s2,a1
    80001412:	8ab6                	mv	s5,a3
    panic("uvmunmap: not aligned");

  for(a = va; a < va + npages*PGSIZE; a += PGSIZE){
    80001414:	0632                	sll	a2,a2,0xc
    80001416:	00b609b3          	add	s3,a2,a1
    if((pte = walk(pagetable, a, 0)) == 0)
      panic("uvmunmap: walk");
    if((*pte & PTE_V) == 0)
      panic("uvmunmap: not mapped");
    if(PTE_FLAGS(*pte) == PTE_V)
    8000141a:	4b85                	li	s7,1
  for(a = va; a < va + npages*PGSIZE; a += PGSIZE){
    8000141c:	6b05                	lui	s6,0x1
    8000141e:	0735e263          	bltu	a1,s3,80001482 <uvmunmap+0x90>
      uint64 pa = PTE2PA(*pte);
      kfree((void*)pa);
    }
    *pte = 0;
  }
}
    80001422:	60a6                	ld	ra,72(sp)
    80001424:	6406                	ld	s0,64(sp)
    80001426:	74e2                	ld	s1,56(sp)
    80001428:	7942                	ld	s2,48(sp)
    8000142a:	79a2                	ld	s3,40(sp)
    8000142c:	7a02                	ld	s4,32(sp)
    8000142e:	6ae2                	ld	s5,24(sp)
    80001430:	6b42                	ld	s6,16(sp)
    80001432:	6ba2                	ld	s7,8(sp)
    80001434:	6161                	add	sp,sp,80
    80001436:	8082                	ret
    panic("uvmunmap: not aligned");
    80001438:	00007517          	auipc	a0,0x7
    8000143c:	ce050513          	add	a0,a0,-800 # 80008118 <digits+0xe8>
    80001440:	fffff097          	auipc	ra,0xfffff
    80001444:	102080e7          	jalr	258(ra) # 80000542 <panic>
      panic("uvmunmap: walk");
    80001448:	00007517          	auipc	a0,0x7
    8000144c:	ce850513          	add	a0,a0,-792 # 80008130 <digits+0x100>
    80001450:	fffff097          	auipc	ra,0xfffff
    80001454:	0f2080e7          	jalr	242(ra) # 80000542 <panic>
      panic("uvmunmap: not mapped");
    80001458:	00007517          	auipc	a0,0x7
    8000145c:	ce850513          	add	a0,a0,-792 # 80008140 <digits+0x110>
    80001460:	fffff097          	auipc	ra,0xfffff
    80001464:	0e2080e7          	jalr	226(ra) # 80000542 <panic>
      panic("uvmunmap: not a leaf");
    80001468:	00007517          	auipc	a0,0x7
    8000146c:	cf050513          	add	a0,a0,-784 # 80008158 <digits+0x128>
    80001470:	fffff097          	auipc	ra,0xfffff
    80001474:	0d2080e7          	jalr	210(ra) # 80000542 <panic>
    *pte = 0;
    80001478:	0004b023          	sd	zero,0(s1)
  for(a = va; a < va + npages*PGSIZE; a += PGSIZE){
    8000147c:	995a                	add	s2,s2,s6
    8000147e:	fb3972e3          	bgeu	s2,s3,80001422 <uvmunmap+0x30>
    if((pte = walk(pagetable, a, 0)) == 0)
    80001482:	4601                	li	a2,0
    80001484:	85ca                	mv	a1,s2
    80001486:	8552                	mv	a0,s4
    80001488:	00000097          	auipc	ra,0x0
    8000148c:	c54080e7          	jalr	-940(ra) # 800010dc <walk>
    80001490:	84aa                	mv	s1,a0
    80001492:	d95d                	beqz	a0,80001448 <uvmunmap+0x56>
    if((*pte & PTE_V) == 0)
    80001494:	6108                	ld	a0,0(a0)
    80001496:	00157793          	and	a5,a0,1
    8000149a:	dfdd                	beqz	a5,80001458 <uvmunmap+0x66>
    if(PTE_FLAGS(*pte) == PTE_V)
    8000149c:	3ff57793          	and	a5,a0,1023
    800014a0:	fd7784e3          	beq	a5,s7,80001468 <uvmunmap+0x76>
    if(do_free){
    800014a4:	fc0a8ae3          	beqz	s5,80001478 <uvmunmap+0x86>
      uint64 pa = PTE2PA(*pte);
    800014a8:	8129                	srl	a0,a0,0xa
      kfree((void*)pa);
    800014aa:	0532                	sll	a0,a0,0xc
    800014ac:	fffff097          	auipc	ra,0xfffff
    800014b0:	562080e7          	jalr	1378(ra) # 80000a0e <kfree>
    800014b4:	b7d1                	j	80001478 <uvmunmap+0x86>

00000000800014b6 <u2kvmcopy>:
int u2kvmcopy(pagetable_t upagetable, pagetable_t kpagetable, uint64 begin, uint64 end) {
    800014b6:	7139                	add	sp,sp,-64
    800014b8:	fc06                	sd	ra,56(sp)
    800014ba:	f822                	sd	s0,48(sp)
    800014bc:	f426                	sd	s1,40(sp)
    800014be:	f04a                	sd	s2,32(sp)
    800014c0:	ec4e                	sd	s3,24(sp)
    800014c2:	e852                	sd	s4,16(sp)
    800014c4:	e456                	sd	s5,8(sp)
    800014c6:	0080                	add	s0,sp,64
    uint64 begin_page = PGROUNDUP(begin);    // 
    800014c8:	6785                	lui	a5,0x1
    800014ca:	17fd                	add	a5,a5,-1 # fff <_entry-0x7ffff001>
    800014cc:	963e                	add	a2,a2,a5
    800014ce:	77fd                	lui	a5,0xfffff
    800014d0:	00f67a33          	and	s4,a2,a5
    for(i = begin_page; i < end; i += PGSIZE){
    800014d4:	08da7863          	bgeu	s4,a3,80001564 <u2kvmcopy+0xae>
    800014d8:	8aaa                	mv	s5,a0
    800014da:	89ae                	mv	s3,a1
    800014dc:	8936                	mv	s2,a3
    800014de:	84d2                	mv	s1,s4
        if((pte = walk(upagetable, i, 0)) == 0)
    800014e0:	4601                	li	a2,0
    800014e2:	85a6                	mv	a1,s1
    800014e4:	8556                	mv	a0,s5
    800014e6:	00000097          	auipc	ra,0x0
    800014ea:	bf6080e7          	jalr	-1034(ra) # 800010dc <walk>
    800014ee:	c51d                	beqz	a0,8000151c <u2kvmcopy+0x66>
        if((*pte & PTE_V) == 0)
    800014f0:	6118                	ld	a4,0(a0)
    800014f2:	00177793          	and	a5,a4,1
    800014f6:	cb9d                	beqz	a5,8000152c <u2kvmcopy+0x76>
        pa = PTE2PA(*pte);
    800014f8:	00a75693          	srl	a3,a4,0xa
        if(mappages(kpagetable, i, PGSIZE, pa, flags) != 0){
    800014fc:	3ef77713          	and	a4,a4,1007
    80001500:	06b2                	sll	a3,a3,0xc
    80001502:	6605                	lui	a2,0x1
    80001504:	85a6                	mv	a1,s1
    80001506:	854e                	mv	a0,s3
    80001508:	00000097          	auipc	ra,0x0
    8000150c:	d22080e7          	jalr	-734(ra) # 8000122a <mappages>
    80001510:	e515                	bnez	a0,8000153c <u2kvmcopy+0x86>
    for(i = begin_page; i < end; i += PGSIZE){
    80001512:	6785                	lui	a5,0x1
    80001514:	94be                	add	s1,s1,a5
    80001516:	fd24e5e3          	bltu	s1,s2,800014e0 <u2kvmcopy+0x2a>
    8000151a:	a825                	j	80001552 <u2kvmcopy+0x9c>
            panic("uvmcopy2kvm: pte should exist");
    8000151c:	00007517          	auipc	a0,0x7
    80001520:	c5450513          	add	a0,a0,-940 # 80008170 <digits+0x140>
    80001524:	fffff097          	auipc	ra,0xfffff
    80001528:	01e080e7          	jalr	30(ra) # 80000542 <panic>
            panic("uvmcopy2kvm: page not present");
    8000152c:	00007517          	auipc	a0,0x7
    80001530:	c6450513          	add	a0,a0,-924 # 80008190 <digits+0x160>
    80001534:	fffff097          	auipc	ra,0xfffff
    80001538:	00e080e7          	jalr	14(ra) # 80000542 <panic>
    uvmunmap(kpagetable, begin_page, (i- begin_page) / PGSIZE, 0);
    8000153c:	41448633          	sub	a2,s1,s4
    80001540:	4681                	li	a3,0
    80001542:	8231                	srl	a2,a2,0xc
    80001544:	85d2                	mv	a1,s4
    80001546:	854e                	mv	a0,s3
    80001548:	00000097          	auipc	ra,0x0
    8000154c:	eaa080e7          	jalr	-342(ra) # 800013f2 <uvmunmap>
    return -1;
    80001550:	557d                	li	a0,-1
}
    80001552:	70e2                	ld	ra,56(sp)
    80001554:	7442                	ld	s0,48(sp)
    80001556:	74a2                	ld	s1,40(sp)
    80001558:	7902                	ld	s2,32(sp)
    8000155a:	69e2                	ld	s3,24(sp)
    8000155c:	6a42                	ld	s4,16(sp)
    8000155e:	6aa2                	ld	s5,8(sp)
    80001560:	6121                	add	sp,sp,64
    80001562:	8082                	ret
    return 0;
    80001564:	4501                	li	a0,0
    80001566:	b7f5                	j	80001552 <u2kvmcopy+0x9c>

0000000080001568 <uvmcreate>:

// create an empty user page table.
// returns 0 if out of memory.
pagetable_t
uvmcreate()
{
    80001568:	1101                	add	sp,sp,-32
    8000156a:	ec06                	sd	ra,24(sp)
    8000156c:	e822                	sd	s0,16(sp)
    8000156e:	e426                	sd	s1,8(sp)
    80001570:	1000                	add	s0,sp,32
  pagetable_t pagetable;
  pagetable = (pagetable_t) kalloc();
    80001572:	fffff097          	auipc	ra,0xfffff
    80001576:	59a080e7          	jalr	1434(ra) # 80000b0c <kalloc>
    8000157a:	84aa                	mv	s1,a0
  if(pagetable == 0)
    8000157c:	c519                	beqz	a0,8000158a <uvmcreate+0x22>
    return 0;
  memset(pagetable, 0, PGSIZE);
    8000157e:	6605                	lui	a2,0x1
    80001580:	4581                	li	a1,0
    80001582:	fffff097          	auipc	ra,0xfffff
    80001586:	776080e7          	jalr	1910(ra) # 80000cf8 <memset>
  return pagetable;
}
    8000158a:	8526                	mv	a0,s1
    8000158c:	60e2                	ld	ra,24(sp)
    8000158e:	6442                	ld	s0,16(sp)
    80001590:	64a2                	ld	s1,8(sp)
    80001592:	6105                	add	sp,sp,32
    80001594:	8082                	ret

0000000080001596 <uvminit>:
// Load the user initcode into address 0 of pagetable,
// for the very first process.
// sz must be less than a page.
void
uvminit(pagetable_t pagetable, uchar *src, uint sz)
{
    80001596:	7179                	add	sp,sp,-48
    80001598:	f406                	sd	ra,40(sp)
    8000159a:	f022                	sd	s0,32(sp)
    8000159c:	ec26                	sd	s1,24(sp)
    8000159e:	e84a                	sd	s2,16(sp)
    800015a0:	e44e                	sd	s3,8(sp)
    800015a2:	e052                	sd	s4,0(sp)
    800015a4:	1800                	add	s0,sp,48
  char *mem;

  if(sz >= PGSIZE)
    800015a6:	6785                	lui	a5,0x1
    800015a8:	04f67863          	bgeu	a2,a5,800015f8 <uvminit+0x62>
    800015ac:	8a2a                	mv	s4,a0
    800015ae:	89ae                	mv	s3,a1
    800015b0:	84b2                	mv	s1,a2
    panic("inituvm: more than a page");
  mem = kalloc();
    800015b2:	fffff097          	auipc	ra,0xfffff
    800015b6:	55a080e7          	jalr	1370(ra) # 80000b0c <kalloc>
    800015ba:	892a                	mv	s2,a0
  memset(mem, 0, PGSIZE);
    800015bc:	6605                	lui	a2,0x1
    800015be:	4581                	li	a1,0
    800015c0:	fffff097          	auipc	ra,0xfffff
    800015c4:	738080e7          	jalr	1848(ra) # 80000cf8 <memset>
  mappages(pagetable, 0, PGSIZE, (uint64)mem, PTE_W|PTE_R|PTE_X|PTE_U);
    800015c8:	4779                	li	a4,30
    800015ca:	86ca                	mv	a3,s2
    800015cc:	6605                	lui	a2,0x1
    800015ce:	4581                	li	a1,0
    800015d0:	8552                	mv	a0,s4
    800015d2:	00000097          	auipc	ra,0x0
    800015d6:	c58080e7          	jalr	-936(ra) # 8000122a <mappages>
  memmove(mem, src, sz);
    800015da:	8626                	mv	a2,s1
    800015dc:	85ce                	mv	a1,s3
    800015de:	854a                	mv	a0,s2
    800015e0:	fffff097          	auipc	ra,0xfffff
    800015e4:	774080e7          	jalr	1908(ra) # 80000d54 <memmove>
}
    800015e8:	70a2                	ld	ra,40(sp)
    800015ea:	7402                	ld	s0,32(sp)
    800015ec:	64e2                	ld	s1,24(sp)
    800015ee:	6942                	ld	s2,16(sp)
    800015f0:	69a2                	ld	s3,8(sp)
    800015f2:	6a02                	ld	s4,0(sp)
    800015f4:	6145                	add	sp,sp,48
    800015f6:	8082                	ret
    panic("inituvm: more than a page");
    800015f8:	00007517          	auipc	a0,0x7
    800015fc:	bb850513          	add	a0,a0,-1096 # 800081b0 <digits+0x180>
    80001600:	fffff097          	auipc	ra,0xfffff
    80001604:	f42080e7          	jalr	-190(ra) # 80000542 <panic>

0000000080001608 <uvmdealloc>:
// newsz.  oldsz and newsz need not be page-aligned, nor does newsz
// need to be less than oldsz.  oldsz can be larger than the actual
// process size.  Returns the new process size.
uint64
uvmdealloc(pagetable_t pagetable, uint64 oldsz, uint64 newsz)
{
    80001608:	1101                	add	sp,sp,-32
    8000160a:	ec06                	sd	ra,24(sp)
    8000160c:	e822                	sd	s0,16(sp)
    8000160e:	e426                	sd	s1,8(sp)
    80001610:	1000                	add	s0,sp,32
  if(newsz >= oldsz)
    return oldsz;
    80001612:	84ae                	mv	s1,a1
  if(newsz >= oldsz)
    80001614:	00b67d63          	bgeu	a2,a1,8000162e <uvmdealloc+0x26>
    80001618:	84b2                	mv	s1,a2

  if(PGROUNDUP(newsz) < PGROUNDUP(oldsz)){
    8000161a:	6785                	lui	a5,0x1
    8000161c:	17fd                	add	a5,a5,-1 # fff <_entry-0x7ffff001>
    8000161e:	00f60733          	add	a4,a2,a5
    80001622:	76fd                	lui	a3,0xfffff
    80001624:	8f75                	and	a4,a4,a3
    80001626:	97ae                	add	a5,a5,a1
    80001628:	8ff5                	and	a5,a5,a3
    8000162a:	00f76863          	bltu	a4,a5,8000163a <uvmdealloc+0x32>
    int npages = (PGROUNDUP(oldsz) - PGROUNDUP(newsz)) / PGSIZE;
    uvmunmap(pagetable, PGROUNDUP(newsz), npages, 1);
  }

  return newsz;
}
    8000162e:	8526                	mv	a0,s1
    80001630:	60e2                	ld	ra,24(sp)
    80001632:	6442                	ld	s0,16(sp)
    80001634:	64a2                	ld	s1,8(sp)
    80001636:	6105                	add	sp,sp,32
    80001638:	8082                	ret
    int npages = (PGROUNDUP(oldsz) - PGROUNDUP(newsz)) / PGSIZE;
    8000163a:	8f99                	sub	a5,a5,a4
    8000163c:	83b1                	srl	a5,a5,0xc
    uvmunmap(pagetable, PGROUNDUP(newsz), npages, 1);
    8000163e:	4685                	li	a3,1
    80001640:	0007861b          	sext.w	a2,a5
    80001644:	85ba                	mv	a1,a4
    80001646:	00000097          	auipc	ra,0x0
    8000164a:	dac080e7          	jalr	-596(ra) # 800013f2 <uvmunmap>
    8000164e:	b7c5                	j	8000162e <uvmdealloc+0x26>

0000000080001650 <uvmalloc>:
  if(newsz < oldsz)
    80001650:	0ab66163          	bltu	a2,a1,800016f2 <uvmalloc+0xa2>
{
    80001654:	7139                	add	sp,sp,-64
    80001656:	fc06                	sd	ra,56(sp)
    80001658:	f822                	sd	s0,48(sp)
    8000165a:	f426                	sd	s1,40(sp)
    8000165c:	f04a                	sd	s2,32(sp)
    8000165e:	ec4e                	sd	s3,24(sp)
    80001660:	e852                	sd	s4,16(sp)
    80001662:	e456                	sd	s5,8(sp)
    80001664:	0080                	add	s0,sp,64
    80001666:	8aaa                	mv	s5,a0
    80001668:	8a32                	mv	s4,a2
  oldsz = PGROUNDUP(oldsz);
    8000166a:	6785                	lui	a5,0x1
    8000166c:	17fd                	add	a5,a5,-1 # fff <_entry-0x7ffff001>
    8000166e:	95be                	add	a1,a1,a5
    80001670:	77fd                	lui	a5,0xfffff
    80001672:	00f5f9b3          	and	s3,a1,a5
  for(a = oldsz; a < newsz; a += PGSIZE){
    80001676:	08c9f063          	bgeu	s3,a2,800016f6 <uvmalloc+0xa6>
    8000167a:	894e                	mv	s2,s3
    mem = kalloc();
    8000167c:	fffff097          	auipc	ra,0xfffff
    80001680:	490080e7          	jalr	1168(ra) # 80000b0c <kalloc>
    80001684:	84aa                	mv	s1,a0
    if(mem == 0){
    80001686:	c51d                	beqz	a0,800016b4 <uvmalloc+0x64>
    memset(mem, 0, PGSIZE);
    80001688:	6605                	lui	a2,0x1
    8000168a:	4581                	li	a1,0
    8000168c:	fffff097          	auipc	ra,0xfffff
    80001690:	66c080e7          	jalr	1644(ra) # 80000cf8 <memset>
    if(mappages(pagetable, a, PGSIZE, (uint64)mem, PTE_W|PTE_X|PTE_R|PTE_U) != 0){
    80001694:	4779                	li	a4,30
    80001696:	86a6                	mv	a3,s1
    80001698:	6605                	lui	a2,0x1
    8000169a:	85ca                	mv	a1,s2
    8000169c:	8556                	mv	a0,s5
    8000169e:	00000097          	auipc	ra,0x0
    800016a2:	b8c080e7          	jalr	-1140(ra) # 8000122a <mappages>
    800016a6:	e905                	bnez	a0,800016d6 <uvmalloc+0x86>
  for(a = oldsz; a < newsz; a += PGSIZE){
    800016a8:	6785                	lui	a5,0x1
    800016aa:	993e                	add	s2,s2,a5
    800016ac:	fd4968e3          	bltu	s2,s4,8000167c <uvmalloc+0x2c>
  return newsz;
    800016b0:	8552                	mv	a0,s4
    800016b2:	a809                	j	800016c4 <uvmalloc+0x74>
      uvmdealloc(pagetable, a, oldsz);
    800016b4:	864e                	mv	a2,s3
    800016b6:	85ca                	mv	a1,s2
    800016b8:	8556                	mv	a0,s5
    800016ba:	00000097          	auipc	ra,0x0
    800016be:	f4e080e7          	jalr	-178(ra) # 80001608 <uvmdealloc>
      return 0;
    800016c2:	4501                	li	a0,0
}
    800016c4:	70e2                	ld	ra,56(sp)
    800016c6:	7442                	ld	s0,48(sp)
    800016c8:	74a2                	ld	s1,40(sp)
    800016ca:	7902                	ld	s2,32(sp)
    800016cc:	69e2                	ld	s3,24(sp)
    800016ce:	6a42                	ld	s4,16(sp)
    800016d0:	6aa2                	ld	s5,8(sp)
    800016d2:	6121                	add	sp,sp,64
    800016d4:	8082                	ret
      kfree(mem);
    800016d6:	8526                	mv	a0,s1
    800016d8:	fffff097          	auipc	ra,0xfffff
    800016dc:	336080e7          	jalr	822(ra) # 80000a0e <kfree>
      uvmdealloc(pagetable, a, oldsz);
    800016e0:	864e                	mv	a2,s3
    800016e2:	85ca                	mv	a1,s2
    800016e4:	8556                	mv	a0,s5
    800016e6:	00000097          	auipc	ra,0x0
    800016ea:	f22080e7          	jalr	-222(ra) # 80001608 <uvmdealloc>
      return 0;
    800016ee:	4501                	li	a0,0
    800016f0:	bfd1                	j	800016c4 <uvmalloc+0x74>
    return oldsz;
    800016f2:	852e                	mv	a0,a1
}
    800016f4:	8082                	ret
  return newsz;
    800016f6:	8532                	mv	a0,a2
    800016f8:	b7f1                	j	800016c4 <uvmalloc+0x74>

00000000800016fa <freewalk>:

// Recursively free page-table pages.
// All leaf mappings must already have been removed.
void
freewalk(pagetable_t pagetable)
{
    800016fa:	7179                	add	sp,sp,-48
    800016fc:	f406                	sd	ra,40(sp)
    800016fe:	f022                	sd	s0,32(sp)
    80001700:	ec26                	sd	s1,24(sp)
    80001702:	e84a                	sd	s2,16(sp)
    80001704:	e44e                	sd	s3,8(sp)
    80001706:	e052                	sd	s4,0(sp)
    80001708:	1800                	add	s0,sp,48
    8000170a:	8a2a                	mv	s4,a0
  // there are 2^9 = 512 PTEs in a page table.
  for(int i = 0; i < 512; i++){
    8000170c:	84aa                	mv	s1,a0
    8000170e:	6905                	lui	s2,0x1
    80001710:	992a                	add	s2,s2,a0
    pte_t pte = pagetable[i];
    if((pte & PTE_V) && (pte & (PTE_R|PTE_W|PTE_X)) == 0){
    80001712:	4985                	li	s3,1
    80001714:	a829                	j	8000172e <freewalk+0x34>
      // this PTE points to a lower-level page table.
      uint64 child = PTE2PA(pte);
    80001716:	83a9                	srl	a5,a5,0xa
      freewalk((pagetable_t)child);
    80001718:	00c79513          	sll	a0,a5,0xc
    8000171c:	00000097          	auipc	ra,0x0
    80001720:	fde080e7          	jalr	-34(ra) # 800016fa <freewalk>
      pagetable[i] = 0;
    80001724:	0004b023          	sd	zero,0(s1)
  for(int i = 0; i < 512; i++){
    80001728:	04a1                	add	s1,s1,8
    8000172a:	03248163          	beq	s1,s2,8000174c <freewalk+0x52>
    pte_t pte = pagetable[i];
    8000172e:	609c                	ld	a5,0(s1)
    if((pte & PTE_V) && (pte & (PTE_R|PTE_W|PTE_X)) == 0){
    80001730:	00f7f713          	and	a4,a5,15
    80001734:	ff3701e3          	beq	a4,s3,80001716 <freewalk+0x1c>
    } else if(pte & PTE_V){
    80001738:	8b85                	and	a5,a5,1
    8000173a:	d7fd                	beqz	a5,80001728 <freewalk+0x2e>
      panic("freewalk: leaf");
    8000173c:	00007517          	auipc	a0,0x7
    80001740:	a9450513          	add	a0,a0,-1388 # 800081d0 <digits+0x1a0>
    80001744:	fffff097          	auipc	ra,0xfffff
    80001748:	dfe080e7          	jalr	-514(ra) # 80000542 <panic>
    }
  }
  kfree((void*)pagetable);
    8000174c:	8552                	mv	a0,s4
    8000174e:	fffff097          	auipc	ra,0xfffff
    80001752:	2c0080e7          	jalr	704(ra) # 80000a0e <kfree>
}
    80001756:	70a2                	ld	ra,40(sp)
    80001758:	7402                	ld	s0,32(sp)
    8000175a:	64e2                	ld	s1,24(sp)
    8000175c:	6942                	ld	s2,16(sp)
    8000175e:	69a2                	ld	s3,8(sp)
    80001760:	6a02                	ld	s4,0(sp)
    80001762:	6145                	add	sp,sp,48
    80001764:	8082                	ret

0000000080001766 <uvmfree>:

// Free user memory pages,
// then free page-table pages.
void
uvmfree(pagetable_t pagetable, uint64 sz)
{
    80001766:	1101                	add	sp,sp,-32
    80001768:	ec06                	sd	ra,24(sp)
    8000176a:	e822                	sd	s0,16(sp)
    8000176c:	e426                	sd	s1,8(sp)
    8000176e:	1000                	add	s0,sp,32
    80001770:	84aa                	mv	s1,a0
  if(sz > 0)
    80001772:	e999                	bnez	a1,80001788 <uvmfree+0x22>
    uvmunmap(pagetable, 0, PGROUNDUP(sz)/PGSIZE, 1);
  freewalk(pagetable);
    80001774:	8526                	mv	a0,s1
    80001776:	00000097          	auipc	ra,0x0
    8000177a:	f84080e7          	jalr	-124(ra) # 800016fa <freewalk>
}
    8000177e:	60e2                	ld	ra,24(sp)
    80001780:	6442                	ld	s0,16(sp)
    80001782:	64a2                	ld	s1,8(sp)
    80001784:	6105                	add	sp,sp,32
    80001786:	8082                	ret
    uvmunmap(pagetable, 0, PGROUNDUP(sz)/PGSIZE, 1);
    80001788:	6785                	lui	a5,0x1
    8000178a:	17fd                	add	a5,a5,-1 # fff <_entry-0x7ffff001>
    8000178c:	95be                	add	a1,a1,a5
    8000178e:	4685                	li	a3,1
    80001790:	00c5d613          	srl	a2,a1,0xc
    80001794:	4581                	li	a1,0
    80001796:	00000097          	auipc	ra,0x0
    8000179a:	c5c080e7          	jalr	-932(ra) # 800013f2 <uvmunmap>
    8000179e:	bfd9                	j	80001774 <uvmfree+0xe>

00000000800017a0 <uvmcopy>:
  pte_t *pte;
  uint64 pa, i;
  uint flags;
  char *mem;

  for(i = 0; i < sz; i += PGSIZE){
    800017a0:	c679                	beqz	a2,8000186e <uvmcopy+0xce>
{
    800017a2:	715d                	add	sp,sp,-80
    800017a4:	e486                	sd	ra,72(sp)
    800017a6:	e0a2                	sd	s0,64(sp)
    800017a8:	fc26                	sd	s1,56(sp)
    800017aa:	f84a                	sd	s2,48(sp)
    800017ac:	f44e                	sd	s3,40(sp)
    800017ae:	f052                	sd	s4,32(sp)
    800017b0:	ec56                	sd	s5,24(sp)
    800017b2:	e85a                	sd	s6,16(sp)
    800017b4:	e45e                	sd	s7,8(sp)
    800017b6:	0880                	add	s0,sp,80
    800017b8:	8b2a                	mv	s6,a0
    800017ba:	8aae                	mv	s5,a1
    800017bc:	8a32                	mv	s4,a2
  for(i = 0; i < sz; i += PGSIZE){
    800017be:	4981                	li	s3,0
    if((pte = walk(old, i, 0)) == 0)
    800017c0:	4601                	li	a2,0
    800017c2:	85ce                	mv	a1,s3
    800017c4:	855a                	mv	a0,s6
    800017c6:	00000097          	auipc	ra,0x0
    800017ca:	916080e7          	jalr	-1770(ra) # 800010dc <walk>
    800017ce:	c531                	beqz	a0,8000181a <uvmcopy+0x7a>
      panic("uvmcopy: pte should exist");
    if((*pte & PTE_V) == 0)
    800017d0:	6118                	ld	a4,0(a0)
    800017d2:	00177793          	and	a5,a4,1
    800017d6:	cbb1                	beqz	a5,8000182a <uvmcopy+0x8a>
      panic("uvmcopy: page not present");
    pa = PTE2PA(*pte);
    800017d8:	00a75593          	srl	a1,a4,0xa
    800017dc:	00c59b93          	sll	s7,a1,0xc
    flags = PTE_FLAGS(*pte);
    800017e0:	3ff77493          	and	s1,a4,1023
    if((mem = kalloc()) == 0)
    800017e4:	fffff097          	auipc	ra,0xfffff
    800017e8:	328080e7          	jalr	808(ra) # 80000b0c <kalloc>
    800017ec:	892a                	mv	s2,a0
    800017ee:	c939                	beqz	a0,80001844 <uvmcopy+0xa4>
      goto err;
    memmove(mem, (char*)pa, PGSIZE);
    800017f0:	6605                	lui	a2,0x1
    800017f2:	85de                	mv	a1,s7
    800017f4:	fffff097          	auipc	ra,0xfffff
    800017f8:	560080e7          	jalr	1376(ra) # 80000d54 <memmove>
    if(mappages(new, i, PGSIZE, (uint64)mem, flags) != 0){
    800017fc:	8726                	mv	a4,s1
    800017fe:	86ca                	mv	a3,s2
    80001800:	6605                	lui	a2,0x1
    80001802:	85ce                	mv	a1,s3
    80001804:	8556                	mv	a0,s5
    80001806:	00000097          	auipc	ra,0x0
    8000180a:	a24080e7          	jalr	-1500(ra) # 8000122a <mappages>
    8000180e:	e515                	bnez	a0,8000183a <uvmcopy+0x9a>
  for(i = 0; i < sz; i += PGSIZE){
    80001810:	6785                	lui	a5,0x1
    80001812:	99be                	add	s3,s3,a5
    80001814:	fb49e6e3          	bltu	s3,s4,800017c0 <uvmcopy+0x20>
    80001818:	a081                	j	80001858 <uvmcopy+0xb8>
      panic("uvmcopy: pte should exist");
    8000181a:	00007517          	auipc	a0,0x7
    8000181e:	9c650513          	add	a0,a0,-1594 # 800081e0 <digits+0x1b0>
    80001822:	fffff097          	auipc	ra,0xfffff
    80001826:	d20080e7          	jalr	-736(ra) # 80000542 <panic>
      panic("uvmcopy: page not present");
    8000182a:	00007517          	auipc	a0,0x7
    8000182e:	9d650513          	add	a0,a0,-1578 # 80008200 <digits+0x1d0>
    80001832:	fffff097          	auipc	ra,0xfffff
    80001836:	d10080e7          	jalr	-752(ra) # 80000542 <panic>
      kfree(mem);
    8000183a:	854a                	mv	a0,s2
    8000183c:	fffff097          	auipc	ra,0xfffff
    80001840:	1d2080e7          	jalr	466(ra) # 80000a0e <kfree>
    }
  }
  return 0;

 err:
  uvmunmap(new, 0, i / PGSIZE, 1);
    80001844:	4685                	li	a3,1
    80001846:	00c9d613          	srl	a2,s3,0xc
    8000184a:	4581                	li	a1,0
    8000184c:	8556                	mv	a0,s5
    8000184e:	00000097          	auipc	ra,0x0
    80001852:	ba4080e7          	jalr	-1116(ra) # 800013f2 <uvmunmap>
  return -1;
    80001856:	557d                	li	a0,-1
}
    80001858:	60a6                	ld	ra,72(sp)
    8000185a:	6406                	ld	s0,64(sp)
    8000185c:	74e2                	ld	s1,56(sp)
    8000185e:	7942                	ld	s2,48(sp)
    80001860:	79a2                	ld	s3,40(sp)
    80001862:	7a02                	ld	s4,32(sp)
    80001864:	6ae2                	ld	s5,24(sp)
    80001866:	6b42                	ld	s6,16(sp)
    80001868:	6ba2                	ld	s7,8(sp)
    8000186a:	6161                	add	sp,sp,80
    8000186c:	8082                	ret
  return 0;
    8000186e:	4501                	li	a0,0
}
    80001870:	8082                	ret

0000000080001872 <uvmclear>:

// mark a PTE invalid for user access.
// used by exec for the user stack guard page.
void
uvmclear(pagetable_t pagetable, uint64 va)
{
    80001872:	1141                	add	sp,sp,-16
    80001874:	e406                	sd	ra,8(sp)
    80001876:	e022                	sd	s0,0(sp)
    80001878:	0800                	add	s0,sp,16
  pte_t *pte;
  
  pte = walk(pagetable, va, 0);
    8000187a:	4601                	li	a2,0
    8000187c:	00000097          	auipc	ra,0x0
    80001880:	860080e7          	jalr	-1952(ra) # 800010dc <walk>
  if(pte == 0)
    80001884:	c901                	beqz	a0,80001894 <uvmclear+0x22>
    panic("uvmclear");
  *pte &= ~PTE_U;
    80001886:	611c                	ld	a5,0(a0)
    80001888:	9bbd                	and	a5,a5,-17
    8000188a:	e11c                	sd	a5,0(a0)
}
    8000188c:	60a2                	ld	ra,8(sp)
    8000188e:	6402                	ld	s0,0(sp)
    80001890:	0141                	add	sp,sp,16
    80001892:	8082                	ret
    panic("uvmclear");
    80001894:	00007517          	auipc	a0,0x7
    80001898:	98c50513          	add	a0,a0,-1652 # 80008220 <digits+0x1f0>
    8000189c:	fffff097          	auipc	ra,0xfffff
    800018a0:	ca6080e7          	jalr	-858(ra) # 80000542 <panic>

00000000800018a4 <copyout>:
int
copyout(pagetable_t pagetable, uint64 dstva, char *src, uint64 len)
{
  uint64 n, va0, pa0;

  while(len > 0){
    800018a4:	c6bd                	beqz	a3,80001912 <copyout+0x6e>
{
    800018a6:	715d                	add	sp,sp,-80
    800018a8:	e486                	sd	ra,72(sp)
    800018aa:	e0a2                	sd	s0,64(sp)
    800018ac:	fc26                	sd	s1,56(sp)
    800018ae:	f84a                	sd	s2,48(sp)
    800018b0:	f44e                	sd	s3,40(sp)
    800018b2:	f052                	sd	s4,32(sp)
    800018b4:	ec56                	sd	s5,24(sp)
    800018b6:	e85a                	sd	s6,16(sp)
    800018b8:	e45e                	sd	s7,8(sp)
    800018ba:	e062                	sd	s8,0(sp)
    800018bc:	0880                	add	s0,sp,80
    800018be:	8b2a                	mv	s6,a0
    800018c0:	8c2e                	mv	s8,a1
    800018c2:	8a32                	mv	s4,a2
    800018c4:	89b6                	mv	s3,a3
    va0 = PGROUNDDOWN(dstva);
    800018c6:	7bfd                	lui	s7,0xfffff
    pa0 = walkaddr(pagetable, va0);
    if(pa0 == 0)
      return -1;
    n = PGSIZE - (dstva - va0);
    800018c8:	6a85                	lui	s5,0x1
    800018ca:	a015                	j	800018ee <copyout+0x4a>
    if(n > len)
      n = len;
    memmove((void *)(pa0 + (dstva - va0)), src, n);
    800018cc:	9562                	add	a0,a0,s8
    800018ce:	0004861b          	sext.w	a2,s1
    800018d2:	85d2                	mv	a1,s4
    800018d4:	41250533          	sub	a0,a0,s2
    800018d8:	fffff097          	auipc	ra,0xfffff
    800018dc:	47c080e7          	jalr	1148(ra) # 80000d54 <memmove>

    len -= n;
    800018e0:	409989b3          	sub	s3,s3,s1
    src += n;
    800018e4:	9a26                	add	s4,s4,s1
    dstva = va0 + PGSIZE;
    800018e6:	01590c33          	add	s8,s2,s5
  while(len > 0){
    800018ea:	02098263          	beqz	s3,8000190e <copyout+0x6a>
    va0 = PGROUNDDOWN(dstva);
    800018ee:	017c7933          	and	s2,s8,s7
    pa0 = walkaddr(pagetable, va0);
    800018f2:	85ca                	mv	a1,s2
    800018f4:	855a                	mv	a0,s6
    800018f6:	00000097          	auipc	ra,0x0
    800018fa:	88c080e7          	jalr	-1908(ra) # 80001182 <walkaddr>
    if(pa0 == 0)
    800018fe:	cd01                	beqz	a0,80001916 <copyout+0x72>
    n = PGSIZE - (dstva - va0);
    80001900:	418904b3          	sub	s1,s2,s8
    80001904:	94d6                	add	s1,s1,s5
    80001906:	fc99f3e3          	bgeu	s3,s1,800018cc <copyout+0x28>
    8000190a:	84ce                	mv	s1,s3
    8000190c:	b7c1                	j	800018cc <copyout+0x28>
  }
  return 0;
    8000190e:	4501                	li	a0,0
    80001910:	a021                	j	80001918 <copyout+0x74>
    80001912:	4501                	li	a0,0
}
    80001914:	8082                	ret
      return -1;
    80001916:	557d                	li	a0,-1
}
    80001918:	60a6                	ld	ra,72(sp)
    8000191a:	6406                	ld	s0,64(sp)
    8000191c:	74e2                	ld	s1,56(sp)
    8000191e:	7942                	ld	s2,48(sp)
    80001920:	79a2                	ld	s3,40(sp)
    80001922:	7a02                	ld	s4,32(sp)
    80001924:	6ae2                	ld	s5,24(sp)
    80001926:	6b42                	ld	s6,16(sp)
    80001928:	6ba2                	ld	s7,8(sp)
    8000192a:	6c02                	ld	s8,0(sp)
    8000192c:	6161                	add	sp,sp,80
    8000192e:	8082                	ret

0000000080001930 <copyin>:
// Copy from user to kernel.
// Copy len bytes to dst from virtual address srcva in a given page table.
// Return 0 on success, -1 on error.
int
copyin(pagetable_t pagetable, char *dst, uint64 srcva, uint64 len)
{
    80001930:	1141                	add	sp,sp,-16
    80001932:	e406                	sd	ra,8(sp)
    80001934:	e022                	sd	s0,0(sp)
    80001936:	0800                	add	s0,sp,16
  return copyin_new(pagetable,dst,srcva,len);
    80001938:	00005097          	auipc	ra,0x5
    8000193c:	b40080e7          	jalr	-1216(ra) # 80006478 <copyin_new>
}
    80001940:	60a2                	ld	ra,8(sp)
    80001942:	6402                	ld	s0,0(sp)
    80001944:	0141                	add	sp,sp,16
    80001946:	8082                	ret

0000000080001948 <copyinstr>:
// Copy bytes to dst from virtual address srcva in a given page table,
// until a '\0', or max.
// Return 0 on success, -1 on error.
int
copyinstr(pagetable_t pagetable, char *dst, uint64 srcva, uint64 max)
{
    80001948:	1141                	add	sp,sp,-16
    8000194a:	e406                	sd	ra,8(sp)
    8000194c:	e022                	sd	s0,0(sp)
    8000194e:	0800                	add	s0,sp,16
  return copyinstr_new(pagetable,dst,srcva,max);
    80001950:	00005097          	auipc	ra,0x5
    80001954:	b90080e7          	jalr	-1136(ra) # 800064e0 <copyinstr_new>
}
    80001958:	60a2                	ld	ra,8(sp)
    8000195a:	6402                	ld	s0,0(sp)
    8000195c:	0141                	add	sp,sp,16
    8000195e:	8082                	ret

0000000080001960 <wakeup1>:

// Wake up p if it is sleeping in wait(); used by exit().
// Caller must hold p->lock.
static void
wakeup1(struct proc *p)
{
    80001960:	1101                	add	sp,sp,-32
    80001962:	ec06                	sd	ra,24(sp)
    80001964:	e822                	sd	s0,16(sp)
    80001966:	e426                	sd	s1,8(sp)
    80001968:	1000                	add	s0,sp,32
    8000196a:	84aa                	mv	s1,a0
  if(!holding(&p->lock))
    8000196c:	fffff097          	auipc	ra,0xfffff
    80001970:	216080e7          	jalr	534(ra) # 80000b82 <holding>
    80001974:	c909                	beqz	a0,80001986 <wakeup1+0x26>
    panic("wakeup1");
  if(p->chan == p && p->state == SLEEPING) {
    80001976:	749c                	ld	a5,40(s1)
    80001978:	00978f63          	beq	a5,s1,80001996 <wakeup1+0x36>
    p->state = RUNNABLE;
  }
}
    8000197c:	60e2                	ld	ra,24(sp)
    8000197e:	6442                	ld	s0,16(sp)
    80001980:	64a2                	ld	s1,8(sp)
    80001982:	6105                	add	sp,sp,32
    80001984:	8082                	ret
    panic("wakeup1");
    80001986:	00007517          	auipc	a0,0x7
    8000198a:	8aa50513          	add	a0,a0,-1878 # 80008230 <digits+0x200>
    8000198e:	fffff097          	auipc	ra,0xfffff
    80001992:	bb4080e7          	jalr	-1100(ra) # 80000542 <panic>
  if(p->chan == p && p->state == SLEEPING) {
    80001996:	4c98                	lw	a4,24(s1)
    80001998:	4785                	li	a5,1
    8000199a:	fef711e3          	bne	a4,a5,8000197c <wakeup1+0x1c>
    p->state = RUNNABLE;
    8000199e:	4789                	li	a5,2
    800019a0:	cc9c                	sw	a5,24(s1)
}
    800019a2:	bfe9                	j	8000197c <wakeup1+0x1c>

00000000800019a4 <procinit>:
{
    800019a4:	7179                	add	sp,sp,-48
    800019a6:	f406                	sd	ra,40(sp)
    800019a8:	f022                	sd	s0,32(sp)
    800019aa:	ec26                	sd	s1,24(sp)
    800019ac:	e84a                	sd	s2,16(sp)
    800019ae:	e44e                	sd	s3,8(sp)
    800019b0:	1800                	add	s0,sp,48
  initlock(&pid_lock, "nextpid");
    800019b2:	00007597          	auipc	a1,0x7
    800019b6:	88658593          	add	a1,a1,-1914 # 80008238 <digits+0x208>
    800019ba:	00010517          	auipc	a0,0x10
    800019be:	f9650513          	add	a0,a0,-106 # 80011950 <pid_lock>
    800019c2:	fffff097          	auipc	ra,0xfffff
    800019c6:	1aa080e7          	jalr	426(ra) # 80000b6c <initlock>
  for(p = proc; p < &proc[NPROC]; p++) {
    800019ca:	00010497          	auipc	s1,0x10
    800019ce:	39e48493          	add	s1,s1,926 # 80011d68 <proc>
      initlock(&p->lock, "proc");
    800019d2:	00007997          	auipc	s3,0x7
    800019d6:	86e98993          	add	s3,s3,-1938 # 80008240 <digits+0x210>
  for(p = proc; p < &proc[NPROC]; p++) {
    800019da:	00016917          	auipc	s2,0x16
    800019de:	f8e90913          	add	s2,s2,-114 # 80017968 <tickslock>
      initlock(&p->lock, "proc");
    800019e2:	85ce                	mv	a1,s3
    800019e4:	8526                	mv	a0,s1
    800019e6:	fffff097          	auipc	ra,0xfffff
    800019ea:	186080e7          	jalr	390(ra) # 80000b6c <initlock>
  for(p = proc; p < &proc[NPROC]; p++) {
    800019ee:	17048493          	add	s1,s1,368
    800019f2:	ff2498e3          	bne	s1,s2,800019e2 <procinit+0x3e>
  kvminithart();
    800019f6:	fffff097          	auipc	ra,0xfffff
    800019fa:	6c2080e7          	jalr	1730(ra) # 800010b8 <kvminithart>
}
    800019fe:	70a2                	ld	ra,40(sp)
    80001a00:	7402                	ld	s0,32(sp)
    80001a02:	64e2                	ld	s1,24(sp)
    80001a04:	6942                	ld	s2,16(sp)
    80001a06:	69a2                	ld	s3,8(sp)
    80001a08:	6145                	add	sp,sp,48
    80001a0a:	8082                	ret

0000000080001a0c <cpuid>:
{
    80001a0c:	1141                	add	sp,sp,-16
    80001a0e:	e422                	sd	s0,8(sp)
    80001a10:	0800                	add	s0,sp,16
  asm volatile("mv %0, tp" : "=r" (x) );
    80001a12:	8512                	mv	a0,tp
}
    80001a14:	2501                	sext.w	a0,a0
    80001a16:	6422                	ld	s0,8(sp)
    80001a18:	0141                	add	sp,sp,16
    80001a1a:	8082                	ret

0000000080001a1c <mycpu>:
mycpu(void) {
    80001a1c:	1141                	add	sp,sp,-16
    80001a1e:	e422                	sd	s0,8(sp)
    80001a20:	0800                	add	s0,sp,16
    80001a22:	8792                	mv	a5,tp
  struct cpu *c = &cpus[id];
    80001a24:	2781                	sext.w	a5,a5
    80001a26:	079e                	sll	a5,a5,0x7
}
    80001a28:	00010517          	auipc	a0,0x10
    80001a2c:	f4050513          	add	a0,a0,-192 # 80011968 <cpus>
    80001a30:	953e                	add	a0,a0,a5
    80001a32:	6422                	ld	s0,8(sp)
    80001a34:	0141                	add	sp,sp,16
    80001a36:	8082                	ret

0000000080001a38 <myproc>:
myproc(void) {
    80001a38:	1101                	add	sp,sp,-32
    80001a3a:	ec06                	sd	ra,24(sp)
    80001a3c:	e822                	sd	s0,16(sp)
    80001a3e:	e426                	sd	s1,8(sp)
    80001a40:	1000                	add	s0,sp,32
  push_off();
    80001a42:	fffff097          	auipc	ra,0xfffff
    80001a46:	16e080e7          	jalr	366(ra) # 80000bb0 <push_off>
    80001a4a:	8792                	mv	a5,tp
  struct proc *p = c->proc;
    80001a4c:	2781                	sext.w	a5,a5
    80001a4e:	079e                	sll	a5,a5,0x7
    80001a50:	00010717          	auipc	a4,0x10
    80001a54:	f0070713          	add	a4,a4,-256 # 80011950 <pid_lock>
    80001a58:	97ba                	add	a5,a5,a4
    80001a5a:	6f84                	ld	s1,24(a5)
  pop_off();
    80001a5c:	fffff097          	auipc	ra,0xfffff
    80001a60:	1f4080e7          	jalr	500(ra) # 80000c50 <pop_off>
}
    80001a64:	8526                	mv	a0,s1
    80001a66:	60e2                	ld	ra,24(sp)
    80001a68:	6442                	ld	s0,16(sp)
    80001a6a:	64a2                	ld	s1,8(sp)
    80001a6c:	6105                	add	sp,sp,32
    80001a6e:	8082                	ret

0000000080001a70 <forkret>:
{
    80001a70:	1141                	add	sp,sp,-16
    80001a72:	e406                	sd	ra,8(sp)
    80001a74:	e022                	sd	s0,0(sp)
    80001a76:	0800                	add	s0,sp,16
  release(&myproc()->lock);
    80001a78:	00000097          	auipc	ra,0x0
    80001a7c:	fc0080e7          	jalr	-64(ra) # 80001a38 <myproc>
    80001a80:	fffff097          	auipc	ra,0xfffff
    80001a84:	230080e7          	jalr	560(ra) # 80000cb0 <release>
  if (first) {
    80001a88:	00007797          	auipc	a5,0x7
    80001a8c:	e287a783          	lw	a5,-472(a5) # 800088b0 <first.1>
    80001a90:	eb89                	bnez	a5,80001aa2 <forkret+0x32>
  usertrapret();
    80001a92:	00001097          	auipc	ra,0x1
    80001a96:	e82080e7          	jalr	-382(ra) # 80002914 <usertrapret>
}
    80001a9a:	60a2                	ld	ra,8(sp)
    80001a9c:	6402                	ld	s0,0(sp)
    80001a9e:	0141                	add	sp,sp,16
    80001aa0:	8082                	ret
    first = 0;
    80001aa2:	00007797          	auipc	a5,0x7
    80001aa6:	e007a723          	sw	zero,-498(a5) # 800088b0 <first.1>
    fsinit(ROOTDEV);
    80001aaa:	4505                	li	a0,1
    80001aac:	00002097          	auipc	ra,0x2
    80001ab0:	baa080e7          	jalr	-1110(ra) # 80003656 <fsinit>
    80001ab4:	bff9                	j	80001a92 <forkret+0x22>

0000000080001ab6 <allocpid>:
allocpid() {
    80001ab6:	1101                	add	sp,sp,-32
    80001ab8:	ec06                	sd	ra,24(sp)
    80001aba:	e822                	sd	s0,16(sp)
    80001abc:	e426                	sd	s1,8(sp)
    80001abe:	e04a                	sd	s2,0(sp)
    80001ac0:	1000                	add	s0,sp,32
  acquire(&pid_lock);
    80001ac2:	00010917          	auipc	s2,0x10
    80001ac6:	e8e90913          	add	s2,s2,-370 # 80011950 <pid_lock>
    80001aca:	854a                	mv	a0,s2
    80001acc:	fffff097          	auipc	ra,0xfffff
    80001ad0:	130080e7          	jalr	304(ra) # 80000bfc <acquire>
  pid = nextpid;
    80001ad4:	00007797          	auipc	a5,0x7
    80001ad8:	de078793          	add	a5,a5,-544 # 800088b4 <nextpid>
    80001adc:	4384                	lw	s1,0(a5)
  nextpid = nextpid + 1;
    80001ade:	0014871b          	addw	a4,s1,1
    80001ae2:	c398                	sw	a4,0(a5)
  release(&pid_lock);
    80001ae4:	854a                	mv	a0,s2
    80001ae6:	fffff097          	auipc	ra,0xfffff
    80001aea:	1ca080e7          	jalr	458(ra) # 80000cb0 <release>
}
    80001aee:	8526                	mv	a0,s1
    80001af0:	60e2                	ld	ra,24(sp)
    80001af2:	6442                	ld	s0,16(sp)
    80001af4:	64a2                	ld	s1,8(sp)
    80001af6:	6902                	ld	s2,0(sp)
    80001af8:	6105                	add	sp,sp,32
    80001afa:	8082                	ret

0000000080001afc <proc_pagetable>:
{
    80001afc:	1101                	add	sp,sp,-32
    80001afe:	ec06                	sd	ra,24(sp)
    80001b00:	e822                	sd	s0,16(sp)
    80001b02:	e426                	sd	s1,8(sp)
    80001b04:	e04a                	sd	s2,0(sp)
    80001b06:	1000                	add	s0,sp,32
    80001b08:	892a                	mv	s2,a0
  pagetable = uvmcreate();
    80001b0a:	00000097          	auipc	ra,0x0
    80001b0e:	a5e080e7          	jalr	-1442(ra) # 80001568 <uvmcreate>
    80001b12:	84aa                	mv	s1,a0
  if(pagetable == 0)
    80001b14:	c121                	beqz	a0,80001b54 <proc_pagetable+0x58>
  if(mappages(pagetable, TRAMPOLINE, PGSIZE,
    80001b16:	4729                	li	a4,10
    80001b18:	00005697          	auipc	a3,0x5
    80001b1c:	4e868693          	add	a3,a3,1256 # 80007000 <_trampoline>
    80001b20:	6605                	lui	a2,0x1
    80001b22:	040005b7          	lui	a1,0x4000
    80001b26:	15fd                	add	a1,a1,-1 # 3ffffff <_entry-0x7c000001>
    80001b28:	05b2                	sll	a1,a1,0xc
    80001b2a:	fffff097          	auipc	ra,0xfffff
    80001b2e:	700080e7          	jalr	1792(ra) # 8000122a <mappages>
    80001b32:	02054863          	bltz	a0,80001b62 <proc_pagetable+0x66>
  if(mappages(pagetable, TRAPFRAME, PGSIZE,
    80001b36:	4719                	li	a4,6
    80001b38:	06093683          	ld	a3,96(s2)
    80001b3c:	6605                	lui	a2,0x1
    80001b3e:	020005b7          	lui	a1,0x2000
    80001b42:	15fd                	add	a1,a1,-1 # 1ffffff <_entry-0x7e000001>
    80001b44:	05b6                	sll	a1,a1,0xd
    80001b46:	8526                	mv	a0,s1
    80001b48:	fffff097          	auipc	ra,0xfffff
    80001b4c:	6e2080e7          	jalr	1762(ra) # 8000122a <mappages>
    80001b50:	02054163          	bltz	a0,80001b72 <proc_pagetable+0x76>
}
    80001b54:	8526                	mv	a0,s1
    80001b56:	60e2                	ld	ra,24(sp)
    80001b58:	6442                	ld	s0,16(sp)
    80001b5a:	64a2                	ld	s1,8(sp)
    80001b5c:	6902                	ld	s2,0(sp)
    80001b5e:	6105                	add	sp,sp,32
    80001b60:	8082                	ret
    uvmfree(pagetable, 0);
    80001b62:	4581                	li	a1,0
    80001b64:	8526                	mv	a0,s1
    80001b66:	00000097          	auipc	ra,0x0
    80001b6a:	c00080e7          	jalr	-1024(ra) # 80001766 <uvmfree>
    return 0;
    80001b6e:	4481                	li	s1,0
    80001b70:	b7d5                	j	80001b54 <proc_pagetable+0x58>
    uvmunmap(pagetable, TRAMPOLINE, 1, 0);
    80001b72:	4681                	li	a3,0
    80001b74:	4605                	li	a2,1
    80001b76:	040005b7          	lui	a1,0x4000
    80001b7a:	15fd                	add	a1,a1,-1 # 3ffffff <_entry-0x7c000001>
    80001b7c:	05b2                	sll	a1,a1,0xc
    80001b7e:	8526                	mv	a0,s1
    80001b80:	00000097          	auipc	ra,0x0
    80001b84:	872080e7          	jalr	-1934(ra) # 800013f2 <uvmunmap>
    uvmfree(pagetable, 0);
    80001b88:	4581                	li	a1,0
    80001b8a:	8526                	mv	a0,s1
    80001b8c:	00000097          	auipc	ra,0x0
    80001b90:	bda080e7          	jalr	-1062(ra) # 80001766 <uvmfree>
    return 0;
    80001b94:	4481                	li	s1,0
    80001b96:	bf7d                	j	80001b54 <proc_pagetable+0x58>

0000000080001b98 <proc_freepagetable>:
{
    80001b98:	1101                	add	sp,sp,-32
    80001b9a:	ec06                	sd	ra,24(sp)
    80001b9c:	e822                	sd	s0,16(sp)
    80001b9e:	e426                	sd	s1,8(sp)
    80001ba0:	e04a                	sd	s2,0(sp)
    80001ba2:	1000                	add	s0,sp,32
    80001ba4:	84aa                	mv	s1,a0
    80001ba6:	892e                	mv	s2,a1
  uvmunmap(pagetable, TRAMPOLINE, 1, 0);
    80001ba8:	4681                	li	a3,0
    80001baa:	4605                	li	a2,1
    80001bac:	040005b7          	lui	a1,0x4000
    80001bb0:	15fd                	add	a1,a1,-1 # 3ffffff <_entry-0x7c000001>
    80001bb2:	05b2                	sll	a1,a1,0xc
    80001bb4:	00000097          	auipc	ra,0x0
    80001bb8:	83e080e7          	jalr	-1986(ra) # 800013f2 <uvmunmap>
  uvmunmap(pagetable, TRAPFRAME, 1, 0);
    80001bbc:	4681                	li	a3,0
    80001bbe:	4605                	li	a2,1
    80001bc0:	020005b7          	lui	a1,0x2000
    80001bc4:	15fd                	add	a1,a1,-1 # 1ffffff <_entry-0x7e000001>
    80001bc6:	05b6                	sll	a1,a1,0xd
    80001bc8:	8526                	mv	a0,s1
    80001bca:	00000097          	auipc	ra,0x0
    80001bce:	828080e7          	jalr	-2008(ra) # 800013f2 <uvmunmap>
  uvmfree(pagetable, sz);
    80001bd2:	85ca                	mv	a1,s2
    80001bd4:	8526                	mv	a0,s1
    80001bd6:	00000097          	auipc	ra,0x0
    80001bda:	b90080e7          	jalr	-1136(ra) # 80001766 <uvmfree>
}
    80001bde:	60e2                	ld	ra,24(sp)
    80001be0:	6442                	ld	s0,16(sp)
    80001be2:	64a2                	ld	s1,8(sp)
    80001be4:	6902                	ld	s2,0(sp)
    80001be6:	6105                	add	sp,sp,32
    80001be8:	8082                	ret

0000000080001bea <proc_ukpagetable>:
proc_ukpagetable(struct proc *p) {
    80001bea:	1101                	add	sp,sp,-32
    80001bec:	ec06                	sd	ra,24(sp)
    80001bee:	e822                	sd	s0,16(sp)
    80001bf0:	e426                	sd	s1,8(sp)
    80001bf2:	e04a                	sd	s2,0(sp)
    80001bf4:	1000                	add	s0,sp,32
    pagetable_t ukpagetable = uvmcreate();
    80001bf6:	00000097          	auipc	ra,0x0
    80001bfa:	972080e7          	jalr	-1678(ra) # 80001568 <uvmcreate>
    80001bfe:	84aa                	mv	s1,a0
    if(ukpagetable == 0){
    80001c00:	cd51                	beqz	a0,80001c9c <proc_ukpagetable+0xb2>
    ukvmmap(ukpagetable, UART0, UART0, PGSIZE, PTE_R | PTE_W);
    80001c02:	4719                	li	a4,6
    80001c04:	6685                	lui	a3,0x1
    80001c06:	10000637          	lui	a2,0x10000
    80001c0a:	100005b7          	lui	a1,0x10000
    80001c0e:	fffff097          	auipc	ra,0xfffff
    80001c12:	7b4080e7          	jalr	1972(ra) # 800013c2 <ukvmmap>
    ukvmmap(ukpagetable, VIRTIO0, VIRTIO0, PGSIZE, PTE_R | PTE_W);
    80001c16:	4719                	li	a4,6
    80001c18:	6685                	lui	a3,0x1
    80001c1a:	10001637          	lui	a2,0x10001
    80001c1e:	100015b7          	lui	a1,0x10001
    80001c22:	8526                	mv	a0,s1
    80001c24:	fffff097          	auipc	ra,0xfffff
    80001c28:	79e080e7          	jalr	1950(ra) # 800013c2 <ukvmmap>
    ukvmmap(ukpagetable, PLIC, PLIC, 0x400000, PTE_R | PTE_W);
    80001c2c:	4719                	li	a4,6
    80001c2e:	004006b7          	lui	a3,0x400
    80001c32:	0c000637          	lui	a2,0xc000
    80001c36:	0c0005b7          	lui	a1,0xc000
    80001c3a:	8526                	mv	a0,s1
    80001c3c:	fffff097          	auipc	ra,0xfffff
    80001c40:	786080e7          	jalr	1926(ra) # 800013c2 <ukvmmap>
    ukvmmap(ukpagetable, KERNBASE, KERNBASE, (uint64)etext-KERNBASE, PTE_R | PTE_X);
    80001c44:	00006917          	auipc	s2,0x6
    80001c48:	3bc90913          	add	s2,s2,956 # 80008000 <etext>
    80001c4c:	4729                	li	a4,10
    80001c4e:	80006697          	auipc	a3,0x80006
    80001c52:	3b268693          	add	a3,a3,946 # 8000 <_entry-0x7fff8000>
    80001c56:	4605                	li	a2,1
    80001c58:	067e                	sll	a2,a2,0x1f
    80001c5a:	85b2                	mv	a1,a2
    80001c5c:	8526                	mv	a0,s1
    80001c5e:	fffff097          	auipc	ra,0xfffff
    80001c62:	764080e7          	jalr	1892(ra) # 800013c2 <ukvmmap>
    ukvmmap(ukpagetable, (uint64)etext, (uint64)etext, PHYSTOP-(uint64)etext, PTE_R | PTE_W);
    80001c66:	4719                	li	a4,6
    80001c68:	46c5                	li	a3,17
    80001c6a:	06ee                	sll	a3,a3,0x1b
    80001c6c:	412686b3          	sub	a3,a3,s2
    80001c70:	864a                	mv	a2,s2
    80001c72:	85ca                	mv	a1,s2
    80001c74:	8526                	mv	a0,s1
    80001c76:	fffff097          	auipc	ra,0xfffff
    80001c7a:	74c080e7          	jalr	1868(ra) # 800013c2 <ukvmmap>
    ukvmmap(ukpagetable, TRAMPOLINE, (uint64)trampoline, PGSIZE, PTE_R | PTE_X);    // vaTRAMPOLINE
    80001c7e:	4729                	li	a4,10
    80001c80:	6685                	lui	a3,0x1
    80001c82:	00005617          	auipc	a2,0x5
    80001c86:	37e60613          	add	a2,a2,894 # 80007000 <_trampoline>
    80001c8a:	040005b7          	lui	a1,0x4000
    80001c8e:	15fd                	add	a1,a1,-1 # 3ffffff <_entry-0x7c000001>
    80001c90:	05b2                	sll	a1,a1,0xc
    80001c92:	8526                	mv	a0,s1
    80001c94:	fffff097          	auipc	ra,0xfffff
    80001c98:	72e080e7          	jalr	1838(ra) # 800013c2 <ukvmmap>
}
    80001c9c:	8526                	mv	a0,s1
    80001c9e:	60e2                	ld	ra,24(sp)
    80001ca0:	6442                	ld	s0,16(sp)
    80001ca2:	64a2                	ld	s1,8(sp)
    80001ca4:	6902                	ld	s2,0(sp)
    80001ca6:	6105                	add	sp,sp,32
    80001ca8:	8082                	ret

0000000080001caa <proc_ukfreepagetable>:
{
    80001caa:	7179                	add	sp,sp,-48
    80001cac:	f406                	sd	ra,40(sp)
    80001cae:	f022                	sd	s0,32(sp)
    80001cb0:	ec26                	sd	s1,24(sp)
    80001cb2:	e84a                	sd	s2,16(sp)
    80001cb4:	e44e                	sd	s3,8(sp)
    80001cb6:	1800                	add	s0,sp,48
    80001cb8:	89aa                	mv	s3,a0
    for(int i = 0; i < 512; i++){
    80001cba:	84aa                	mv	s1,a0
    80001cbc:	6905                	lui	s2,0x1
    80001cbe:	992a                	add	s2,s2,a0
    80001cc0:	a021                	j	80001cc8 <proc_ukfreepagetable+0x1e>
    80001cc2:	04a1                	add	s1,s1,8
    80001cc4:	03248363          	beq	s1,s2,80001cea <proc_ukfreepagetable+0x40>
        pte_t pte = ukpagetable[i];
    80001cc8:	609c                	ld	a5,0(s1)
        if((pte & PTE_V)){
    80001cca:	0017f713          	and	a4,a5,1
    80001cce:	db75                	beqz	a4,80001cc2 <proc_ukfreepagetable+0x18>
            ukpagetable[i] = 0;    // PTE
    80001cd0:	0004b023          	sd	zero,0(s1)
            if ((pte & (PTE_R|PTE_W|PTE_X)) == 0) {
    80001cd4:	00e7f713          	and	a4,a5,14
    80001cd8:	f76d                	bnez	a4,80001cc2 <proc_ukfreepagetable+0x18>
                uint64 child = PTE2PA(pte);
    80001cda:	83a9                	srl	a5,a5,0xa
                proc_ukfreepagetable((pagetable_t)child);
    80001cdc:	00c79513          	sll	a0,a5,0xc
    80001ce0:	00000097          	auipc	ra,0x0
    80001ce4:	fca080e7          	jalr	-54(ra) # 80001caa <proc_ukfreepagetable>
    80001ce8:	bfe9                	j	80001cc2 <proc_ukfreepagetable+0x18>
    kfree((void*)ukpagetable);
    80001cea:	854e                	mv	a0,s3
    80001cec:	fffff097          	auipc	ra,0xfffff
    80001cf0:	d22080e7          	jalr	-734(ra) # 80000a0e <kfree>
}
    80001cf4:	70a2                	ld	ra,40(sp)
    80001cf6:	7402                	ld	s0,32(sp)
    80001cf8:	64e2                	ld	s1,24(sp)
    80001cfa:	6942                	ld	s2,16(sp)
    80001cfc:	69a2                	ld	s3,8(sp)
    80001cfe:	6145                	add	sp,sp,48
    80001d00:	8082                	ret

0000000080001d02 <freeproc>:
{
    80001d02:	1101                	add	sp,sp,-32
    80001d04:	ec06                	sd	ra,24(sp)
    80001d06:	e822                	sd	s0,16(sp)
    80001d08:	e426                	sd	s1,8(sp)
    80001d0a:	1000                	add	s0,sp,32
    80001d0c:	84aa                	mv	s1,a0
  if(p->trapframe)
    80001d0e:	7128                	ld	a0,96(a0)
    80001d10:	c509                	beqz	a0,80001d1a <freeproc+0x18>
    kfree((void*)p->trapframe);
    80001d12:	fffff097          	auipc	ra,0xfffff
    80001d16:	cfc080e7          	jalr	-772(ra) # 80000a0e <kfree>
  p->trapframe = 0;
    80001d1a:	0604b023          	sd	zero,96(s1)
  if(p->pagetable)
    80001d1e:	68a8                	ld	a0,80(s1)
    80001d20:	c511                	beqz	a0,80001d2c <freeproc+0x2a>
    proc_freepagetable(p->pagetable, p->sz);
    80001d22:	64ac                	ld	a1,72(s1)
    80001d24:	00000097          	auipc	ra,0x0
    80001d28:	e74080e7          	jalr	-396(ra) # 80001b98 <proc_freepagetable>
  p->pagetable = 0;
    80001d2c:	0404b823          	sd	zero,80(s1)
  if(p->kstack) {
    80001d30:	60ac                	ld	a1,64(s1)
    80001d32:	e1a1                	bnez	a1,80001d72 <freeproc+0x70>
  p->kstack = 0;  
    80001d34:	0404b023          	sd	zero,64(s1)
  if(p->ukpagetable)
    80001d38:	6ca8                	ld	a0,88(s1)
    80001d3a:	c509                	beqz	a0,80001d44 <freeproc+0x42>
    proc_ukfreepagetable(p->ukpagetable);
    80001d3c:	00000097          	auipc	ra,0x0
    80001d40:	f6e080e7          	jalr	-146(ra) # 80001caa <proc_ukfreepagetable>
  p->ukpagetable = 0;
    80001d44:	0404bc23          	sd	zero,88(s1)
  p->sz = 0;
    80001d48:	0404b423          	sd	zero,72(s1)
  p->pid = 0;
    80001d4c:	0204ac23          	sw	zero,56(s1)
  p->parent = 0;
    80001d50:	0204b023          	sd	zero,32(s1)
  p->name[0] = 0;
    80001d54:	16048023          	sb	zero,352(s1)
  p->chan = 0;
    80001d58:	0204b423          	sd	zero,40(s1)
  p->killed = 0;
    80001d5c:	0204a823          	sw	zero,48(s1)
  p->xstate = 0;
    80001d60:	0204aa23          	sw	zero,52(s1)
  p->state = UNUSED;
    80001d64:	0004ac23          	sw	zero,24(s1)
}
    80001d68:	60e2                	ld	ra,24(sp)
    80001d6a:	6442                	ld	s0,16(sp)
    80001d6c:	64a2                	ld	s1,8(sp)
    80001d6e:	6105                	add	sp,sp,32
    80001d70:	8082                	ret
    uvmunmap(p->ukpagetable, p->kstack, 1, 1);
    80001d72:	4685                	li	a3,1
    80001d74:	4605                	li	a2,1
    80001d76:	6ca8                	ld	a0,88(s1)
    80001d78:	fffff097          	auipc	ra,0xfffff
    80001d7c:	67a080e7          	jalr	1658(ra) # 800013f2 <uvmunmap>
    80001d80:	bf55                	j	80001d34 <freeproc+0x32>

0000000080001d82 <allocproc>:
{
    80001d82:	1101                	add	sp,sp,-32
    80001d84:	ec06                	sd	ra,24(sp)
    80001d86:	e822                	sd	s0,16(sp)
    80001d88:	e426                	sd	s1,8(sp)
    80001d8a:	e04a                	sd	s2,0(sp)
    80001d8c:	1000                	add	s0,sp,32
  for(p = proc; p < &proc[NPROC]; p++) {
    80001d8e:	00010497          	auipc	s1,0x10
    80001d92:	fda48493          	add	s1,s1,-38 # 80011d68 <proc>
    80001d96:	00016917          	auipc	s2,0x16
    80001d9a:	bd290913          	add	s2,s2,-1070 # 80017968 <tickslock>
    acquire(&p->lock);
    80001d9e:	8526                	mv	a0,s1
    80001da0:	fffff097          	auipc	ra,0xfffff
    80001da4:	e5c080e7          	jalr	-420(ra) # 80000bfc <acquire>
    if(p->state == UNUSED) {
    80001da8:	4c9c                	lw	a5,24(s1)
    80001daa:	cf81                	beqz	a5,80001dc2 <allocproc+0x40>
      release(&p->lock);
    80001dac:	8526                	mv	a0,s1
    80001dae:	fffff097          	auipc	ra,0xfffff
    80001db2:	f02080e7          	jalr	-254(ra) # 80000cb0 <release>
  for(p = proc; p < &proc[NPROC]; p++) {
    80001db6:	17048493          	add	s1,s1,368
    80001dba:	ff2492e3          	bne	s1,s2,80001d9e <allocproc+0x1c>
  return 0;
    80001dbe:	4481                	li	s1,0
    80001dc0:	a061                	j	80001e48 <allocproc+0xc6>
  p->pid = allocpid();
    80001dc2:	00000097          	auipc	ra,0x0
    80001dc6:	cf4080e7          	jalr	-780(ra) # 80001ab6 <allocpid>
    80001dca:	dc88                	sw	a0,56(s1)
  if((p->trapframe = (struct trapframe *)kalloc()) == 0){
    80001dcc:	fffff097          	auipc	ra,0xfffff
    80001dd0:	d40080e7          	jalr	-704(ra) # 80000b0c <kalloc>
    80001dd4:	892a                	mv	s2,a0
    80001dd6:	f0a8                	sd	a0,96(s1)
    80001dd8:	cd3d                	beqz	a0,80001e56 <allocproc+0xd4>
  p->pagetable = proc_pagetable(p);
    80001dda:	8526                	mv	a0,s1
    80001ddc:	00000097          	auipc	ra,0x0
    80001de0:	d20080e7          	jalr	-736(ra) # 80001afc <proc_pagetable>
    80001de4:	892a                	mv	s2,a0
    80001de6:	e8a8                	sd	a0,80(s1)
  if(p->pagetable == 0){
    80001de8:	cd35                	beqz	a0,80001e64 <allocproc+0xe2>
  p->ukpagetable = proc_ukpagetable(p);
    80001dea:	8526                	mv	a0,s1
    80001dec:	00000097          	auipc	ra,0x0
    80001df0:	dfe080e7          	jalr	-514(ra) # 80001bea <proc_ukpagetable>
    80001df4:	892a                	mv	s2,a0
    80001df6:	eca8                	sd	a0,88(s1)
  if(p->ukpagetable == 0){
    80001df8:	c151                	beqz	a0,80001e7c <allocproc+0xfa>
  char *pa = kalloc();
    80001dfa:	fffff097          	auipc	ra,0xfffff
    80001dfe:	d12080e7          	jalr	-750(ra) # 80000b0c <kalloc>
    80001e02:	862a                	mv	a2,a0
  if(pa==0){
    80001e04:	c941                	beqz	a0,80001e94 <allocproc+0x112>
  ukvmmap(p->ukpagetable,va, (uint64)pa, PGSIZE, PTE_R | PTE_W);
    80001e06:	4719                	li	a4,6
    80001e08:	6685                	lui	a3,0x1
    80001e0a:	04000937          	lui	s2,0x4000
    80001e0e:	1975                	add	s2,s2,-3 # 3fffffd <_entry-0x7c000003>
    80001e10:	00c91593          	sll	a1,s2,0xc
    80001e14:	6ca8                	ld	a0,88(s1)
    80001e16:	fffff097          	auipc	ra,0xfffff
    80001e1a:	5ac080e7          	jalr	1452(ra) # 800013c2 <ukvmmap>
  p->kstack = va;
    80001e1e:	0932                	sll	s2,s2,0xc
    80001e20:	0524b023          	sd	s2,64(s1)
  memset(&p->context, 0, sizeof(p->context));
    80001e24:	07000613          	li	a2,112
    80001e28:	4581                	li	a1,0
    80001e2a:	06848513          	add	a0,s1,104
    80001e2e:	fffff097          	auipc	ra,0xfffff
    80001e32:	eca080e7          	jalr	-310(ra) # 80000cf8 <memset>
  p->context.ra = (uint64)forkret;
    80001e36:	00000797          	auipc	a5,0x0
    80001e3a:	c3a78793          	add	a5,a5,-966 # 80001a70 <forkret>
    80001e3e:	f4bc                	sd	a5,104(s1)
  p->context.sp = p->kstack + PGSIZE;
    80001e40:	60bc                	ld	a5,64(s1)
    80001e42:	6705                	lui	a4,0x1
    80001e44:	97ba                	add	a5,a5,a4
    80001e46:	f8bc                	sd	a5,112(s1)
}
    80001e48:	8526                	mv	a0,s1
    80001e4a:	60e2                	ld	ra,24(sp)
    80001e4c:	6442                	ld	s0,16(sp)
    80001e4e:	64a2                	ld	s1,8(sp)
    80001e50:	6902                	ld	s2,0(sp)
    80001e52:	6105                	add	sp,sp,32
    80001e54:	8082                	ret
    release(&p->lock);
    80001e56:	8526                	mv	a0,s1
    80001e58:	fffff097          	auipc	ra,0xfffff
    80001e5c:	e58080e7          	jalr	-424(ra) # 80000cb0 <release>
    return 0;
    80001e60:	84ca                	mv	s1,s2
    80001e62:	b7dd                	j	80001e48 <allocproc+0xc6>
    freeproc(p);
    80001e64:	8526                	mv	a0,s1
    80001e66:	00000097          	auipc	ra,0x0
    80001e6a:	e9c080e7          	jalr	-356(ra) # 80001d02 <freeproc>
    release(&p->lock);
    80001e6e:	8526                	mv	a0,s1
    80001e70:	fffff097          	auipc	ra,0xfffff
    80001e74:	e40080e7          	jalr	-448(ra) # 80000cb0 <release>
    return 0;
    80001e78:	84ca                	mv	s1,s2
    80001e7a:	b7f9                	j	80001e48 <allocproc+0xc6>
    freeproc(p);
    80001e7c:	8526                	mv	a0,s1
    80001e7e:	00000097          	auipc	ra,0x0
    80001e82:	e84080e7          	jalr	-380(ra) # 80001d02 <freeproc>
    release(&p->lock);
    80001e86:	8526                	mv	a0,s1
    80001e88:	fffff097          	auipc	ra,0xfffff
    80001e8c:	e28080e7          	jalr	-472(ra) # 80000cb0 <release>
    return 0;
    80001e90:	84ca                	mv	s1,s2
    80001e92:	bf5d                	j	80001e48 <allocproc+0xc6>
    panic("kalloc");
    80001e94:	00006517          	auipc	a0,0x6
    80001e98:	3b450513          	add	a0,a0,948 # 80008248 <digits+0x218>
    80001e9c:	ffffe097          	auipc	ra,0xffffe
    80001ea0:	6a6080e7          	jalr	1702(ra) # 80000542 <panic>

0000000080001ea4 <userinit>:
{
    80001ea4:	1101                	add	sp,sp,-32
    80001ea6:	ec06                	sd	ra,24(sp)
    80001ea8:	e822                	sd	s0,16(sp)
    80001eaa:	e426                	sd	s1,8(sp)
    80001eac:	e04a                	sd	s2,0(sp)
    80001eae:	1000                	add	s0,sp,32
  p = allocproc();
    80001eb0:	00000097          	auipc	ra,0x0
    80001eb4:	ed2080e7          	jalr	-302(ra) # 80001d82 <allocproc>
    80001eb8:	84aa                	mv	s1,a0
  initproc = p;
    80001eba:	00007797          	auipc	a5,0x7
    80001ebe:	14a7bf23          	sd	a0,350(a5) # 80009018 <initproc>
  uvminit(p->pagetable, initcode, sizeof(initcode));
    80001ec2:	03400613          	li	a2,52
    80001ec6:	00007597          	auipc	a1,0x7
    80001eca:	9fa58593          	add	a1,a1,-1542 # 800088c0 <initcode>
    80001ece:	6928                	ld	a0,80(a0)
    80001ed0:	fffff097          	auipc	ra,0xfffff
    80001ed4:	6c6080e7          	jalr	1734(ra) # 80001596 <uvminit>
  p->sz = PGSIZE;
    80001ed8:	6905                	lui	s2,0x1
    80001eda:	0524b423          	sd	s2,72(s1)
  u2kvmcopy(p->pagetable, p->ukpagetable, 0, p->sz);
    80001ede:	6685                	lui	a3,0x1
    80001ee0:	4601                	li	a2,0
    80001ee2:	6cac                	ld	a1,88(s1)
    80001ee4:	68a8                	ld	a0,80(s1)
    80001ee6:	fffff097          	auipc	ra,0xfffff
    80001eea:	5d0080e7          	jalr	1488(ra) # 800014b6 <u2kvmcopy>
  p->trapframe->epc = 0;      // user program counter
    80001eee:	70bc                	ld	a5,96(s1)
    80001ef0:	0007bc23          	sd	zero,24(a5)
  p->trapframe->sp = PGSIZE;  // user stack pointer
    80001ef4:	70bc                	ld	a5,96(s1)
    80001ef6:	0327b823          	sd	s2,48(a5)
  safestrcpy(p->name, "initcode", sizeof(p->name));
    80001efa:	4641                	li	a2,16
    80001efc:	00006597          	auipc	a1,0x6
    80001f00:	35458593          	add	a1,a1,852 # 80008250 <digits+0x220>
    80001f04:	16048513          	add	a0,s1,352
    80001f08:	fffff097          	auipc	ra,0xfffff
    80001f0c:	f40080e7          	jalr	-192(ra) # 80000e48 <safestrcpy>
  p->cwd = namei("/");
    80001f10:	00006517          	auipc	a0,0x6
    80001f14:	35050513          	add	a0,a0,848 # 80008260 <digits+0x230>
    80001f18:	00002097          	auipc	ra,0x2
    80001f1c:	162080e7          	jalr	354(ra) # 8000407a <namei>
    80001f20:	14a4bc23          	sd	a0,344(s1)
  p->state = RUNNABLE;
    80001f24:	4789                	li	a5,2
    80001f26:	cc9c                	sw	a5,24(s1)
  release(&p->lock);
    80001f28:	8526                	mv	a0,s1
    80001f2a:	fffff097          	auipc	ra,0xfffff
    80001f2e:	d86080e7          	jalr	-634(ra) # 80000cb0 <release>
}
    80001f32:	60e2                	ld	ra,24(sp)
    80001f34:	6442                	ld	s0,16(sp)
    80001f36:	64a2                	ld	s1,8(sp)
    80001f38:	6902                	ld	s2,0(sp)
    80001f3a:	6105                	add	sp,sp,32
    80001f3c:	8082                	ret

0000000080001f3e <growproc>:
{
    80001f3e:	7179                	add	sp,sp,-48
    80001f40:	f406                	sd	ra,40(sp)
    80001f42:	f022                	sd	s0,32(sp)
    80001f44:	ec26                	sd	s1,24(sp)
    80001f46:	e84a                	sd	s2,16(sp)
    80001f48:	e44e                	sd	s3,8(sp)
    80001f4a:	1800                	add	s0,sp,48
    80001f4c:	892a                	mv	s2,a0
  struct proc *p = myproc();
    80001f4e:	00000097          	auipc	ra,0x0
    80001f52:	aea080e7          	jalr	-1302(ra) # 80001a38 <myproc>
    80001f56:	84aa                	mv	s1,a0
  sz = p->sz;
    80001f58:	652c                	ld	a1,72(a0)
    80001f5a:	0005899b          	sext.w	s3,a1
  if(n > 0){
    80001f5e:	07205163          	blez	s2,80001fc0 <growproc+0x82>
    if(n+sz>PLIC) return -1;
    80001f62:	0139093b          	addw	s2,s2,s3
    80001f66:	0009071b          	sext.w	a4,s2
    80001f6a:	0c0007b7          	lui	a5,0xc000
    80001f6e:	0ae7e063          	bltu	a5,a4,8000200e <growproc+0xd0>
    if((sz = uvmalloc(p->pagetable, sz, sz + n)) == 0) {
    80001f72:	02091613          	sll	a2,s2,0x20
    80001f76:	9201                	srl	a2,a2,0x20
    80001f78:	1582                	sll	a1,a1,0x20
    80001f7a:	9181                	srl	a1,a1,0x20
    80001f7c:	6928                	ld	a0,80(a0)
    80001f7e:	fffff097          	auipc	ra,0xfffff
    80001f82:	6d2080e7          	jalr	1746(ra) # 80001650 <uvmalloc>
    80001f86:	0005099b          	sext.w	s3,a0
    80001f8a:	08098463          	beqz	s3,80002012 <growproc+0xd4>
    if(u2kvmcopy(p->pagetable, p->ukpagetable, p->sz, sz) < 0)
    80001f8e:	02051693          	sll	a3,a0,0x20
    80001f92:	9281                	srl	a3,a3,0x20
    80001f94:	64b0                	ld	a2,72(s1)
    80001f96:	6cac                	ld	a1,88(s1)
    80001f98:	68a8                	ld	a0,80(s1)
    80001f9a:	fffff097          	auipc	ra,0xfffff
    80001f9e:	51c080e7          	jalr	1308(ra) # 800014b6 <u2kvmcopy>
    80001fa2:	06054a63          	bltz	a0,80002016 <growproc+0xd8>
  p->sz = sz;
    80001fa6:	1982                	sll	s3,s3,0x20
    80001fa8:	0209d993          	srl	s3,s3,0x20
    80001fac:	0534b423          	sd	s3,72(s1)
  return 0;
    80001fb0:	4501                	li	a0,0
}
    80001fb2:	70a2                	ld	ra,40(sp)
    80001fb4:	7402                	ld	s0,32(sp)
    80001fb6:	64e2                	ld	s1,24(sp)
    80001fb8:	6942                	ld	s2,16(sp)
    80001fba:	69a2                	ld	s3,8(sp)
    80001fbc:	6145                	add	sp,sp,48
    80001fbe:	8082                	ret
  } else if(n < 0){
    80001fc0:	fe0953e3          	bgez	s2,80001fa6 <growproc+0x68>
    sz = uvmdealloc(p->pagetable, sz, sz + n);
    80001fc4:	0139063b          	addw	a2,s2,s3
    80001fc8:	1602                	sll	a2,a2,0x20
    80001fca:	9201                	srl	a2,a2,0x20
    80001fcc:	1582                	sll	a1,a1,0x20
    80001fce:	9181                	srl	a1,a1,0x20
    80001fd0:	6928                	ld	a0,80(a0)
    80001fd2:	fffff097          	auipc	ra,0xfffff
    80001fd6:	636080e7          	jalr	1590(ra) # 80001608 <uvmdealloc>
    80001fda:	0005099b          	sext.w	s3,a0
    if (PGROUNDUP(sz) < PGROUNDUP(p->sz)) {
    80001fde:	6585                	lui	a1,0x1
    80001fe0:	35fd                	addw	a1,a1,-1 # fff <_entry-0x7ffff001>
    80001fe2:	9da9                	addw	a1,a1,a0
    80001fe4:	77fd                	lui	a5,0xfffff
    80001fe6:	8dfd                	and	a1,a1,a5
    80001fe8:	1582                	sll	a1,a1,0x20
    80001fea:	9181                	srl	a1,a1,0x20
    80001fec:	64b0                	ld	a2,72(s1)
    80001fee:	6785                	lui	a5,0x1
    80001ff0:	17fd                	add	a5,a5,-1 # fff <_entry-0x7ffff001>
    80001ff2:	963e                	add	a2,a2,a5
    80001ff4:	77fd                	lui	a5,0xfffff
    80001ff6:	8e7d                	and	a2,a2,a5
    80001ff8:	fac5f7e3          	bgeu	a1,a2,80001fa6 <growproc+0x68>
               (PGROUNDUP(p->sz) - PGROUNDUP(sz)) / PGSIZE, 0);
    80001ffc:	8e0d                	sub	a2,a2,a1
      uvmunmap(p->ukpagetable, PGROUNDUP(sz),
    80001ffe:	4681                	li	a3,0
    80002000:	8231                	srl	a2,a2,0xc
    80002002:	6ca8                	ld	a0,88(s1)
    80002004:	fffff097          	auipc	ra,0xfffff
    80002008:	3ee080e7          	jalr	1006(ra) # 800013f2 <uvmunmap>
    8000200c:	bf69                	j	80001fa6 <growproc+0x68>
    if(n+sz>PLIC) return -1;
    8000200e:	557d                	li	a0,-1
    80002010:	b74d                	j	80001fb2 <growproc+0x74>
      return -1;
    80002012:	557d                	li	a0,-1
    80002014:	bf79                	j	80001fb2 <growproc+0x74>
      return -1;
    80002016:	557d                	li	a0,-1
    80002018:	bf69                	j	80001fb2 <growproc+0x74>

000000008000201a <fork>:
{
    8000201a:	7139                	add	sp,sp,-64
    8000201c:	fc06                	sd	ra,56(sp)
    8000201e:	f822                	sd	s0,48(sp)
    80002020:	f426                	sd	s1,40(sp)
    80002022:	f04a                	sd	s2,32(sp)
    80002024:	ec4e                	sd	s3,24(sp)
    80002026:	e852                	sd	s4,16(sp)
    80002028:	e456                	sd	s5,8(sp)
    8000202a:	0080                	add	s0,sp,64
  struct proc *p = myproc();
    8000202c:	00000097          	auipc	ra,0x0
    80002030:	a0c080e7          	jalr	-1524(ra) # 80001a38 <myproc>
    80002034:	8aaa                	mv	s5,a0
  if((np = allocproc()) == 0){
    80002036:	00000097          	auipc	ra,0x0
    8000203a:	d4c080e7          	jalr	-692(ra) # 80001d82 <allocproc>
    8000203e:	10050b63          	beqz	a0,80002154 <fork+0x13a>
    80002042:	89aa                	mv	s3,a0
  if(uvmcopy(p->pagetable, np->pagetable, p->sz) < 0){
    80002044:	048ab603          	ld	a2,72(s5) # 1048 <_entry-0x7fffefb8>
    80002048:	692c                	ld	a1,80(a0)
    8000204a:	050ab503          	ld	a0,80(s5)
    8000204e:	fffff097          	auipc	ra,0xfffff
    80002052:	752080e7          	jalr	1874(ra) # 800017a0 <uvmcopy>
    80002056:	06054563          	bltz	a0,800020c0 <fork+0xa6>
  np->sz = p->sz;
    8000205a:	048ab683          	ld	a3,72(s5)
    8000205e:	04d9b423          	sd	a3,72(s3)
  if(u2kvmcopy(np->pagetable, np->ukpagetable, 0, np->sz) < 0) {
    80002062:	4601                	li	a2,0
    80002064:	0589b583          	ld	a1,88(s3)
    80002068:	0509b503          	ld	a0,80(s3)
    8000206c:	fffff097          	auipc	ra,0xfffff
    80002070:	44a080e7          	jalr	1098(ra) # 800014b6 <u2kvmcopy>
    80002074:	06054263          	bltz	a0,800020d8 <fork+0xbe>
  np->parent = p;
    80002078:	0359b023          	sd	s5,32(s3)
  *(np->trapframe) = *(p->trapframe);
    8000207c:	060ab683          	ld	a3,96(s5)
    80002080:	87b6                	mv	a5,a3
    80002082:	0609b703          	ld	a4,96(s3)
    80002086:	12068693          	add	a3,a3,288 # 1120 <_entry-0x7fffeee0>
    8000208a:	0007b803          	ld	a6,0(a5) # fffffffffffff000 <end+0xffffffff7ffd7fe0>
    8000208e:	6788                	ld	a0,8(a5)
    80002090:	6b8c                	ld	a1,16(a5)
    80002092:	6f90                	ld	a2,24(a5)
    80002094:	01073023          	sd	a6,0(a4) # 1000 <_entry-0x7ffff000>
    80002098:	e708                	sd	a0,8(a4)
    8000209a:	eb0c                	sd	a1,16(a4)
    8000209c:	ef10                	sd	a2,24(a4)
    8000209e:	02078793          	add	a5,a5,32
    800020a2:	02070713          	add	a4,a4,32
    800020a6:	fed792e3          	bne	a5,a3,8000208a <fork+0x70>
  np->trapframe->a0 = 0;
    800020aa:	0609b783          	ld	a5,96(s3)
    800020ae:	0607b823          	sd	zero,112(a5)
  for(i = 0; i < NOFILE; i++)
    800020b2:	0d8a8493          	add	s1,s5,216
    800020b6:	0d898913          	add	s2,s3,216
    800020ba:	158a8a13          	add	s4,s5,344
    800020be:	a82d                	j	800020f8 <fork+0xde>
    freeproc(np);
    800020c0:	854e                	mv	a0,s3
    800020c2:	00000097          	auipc	ra,0x0
    800020c6:	c40080e7          	jalr	-960(ra) # 80001d02 <freeproc>
    release(&np->lock);
    800020ca:	854e                	mv	a0,s3
    800020cc:	fffff097          	auipc	ra,0xfffff
    800020d0:	be4080e7          	jalr	-1052(ra) # 80000cb0 <release>
    return -1;
    800020d4:	54fd                	li	s1,-1
    800020d6:	a0ad                	j	80002140 <fork+0x126>
    freeproc(np);
    800020d8:	854e                	mv	a0,s3
    800020da:	00000097          	auipc	ra,0x0
    800020de:	c28080e7          	jalr	-984(ra) # 80001d02 <freeproc>
    release(&np->lock);
    800020e2:	854e                	mv	a0,s3
    800020e4:	fffff097          	auipc	ra,0xfffff
    800020e8:	bcc080e7          	jalr	-1076(ra) # 80000cb0 <release>
    return -1;
    800020ec:	54fd                	li	s1,-1
    800020ee:	a889                	j	80002140 <fork+0x126>
  for(i = 0; i < NOFILE; i++)
    800020f0:	04a1                	add	s1,s1,8
    800020f2:	0921                	add	s2,s2,8 # 1008 <_entry-0x7fffeff8>
    800020f4:	01448b63          	beq	s1,s4,8000210a <fork+0xf0>
    if(p->ofile[i])
    800020f8:	6088                	ld	a0,0(s1)
    800020fa:	d97d                	beqz	a0,800020f0 <fork+0xd6>
      np->ofile[i] = filedup(p->ofile[i]);
    800020fc:	00002097          	auipc	ra,0x2
    80002100:	5e6080e7          	jalr	1510(ra) # 800046e2 <filedup>
    80002104:	00a93023          	sd	a0,0(s2)
    80002108:	b7e5                	j	800020f0 <fork+0xd6>
  np->cwd = idup(p->cwd);
    8000210a:	158ab503          	ld	a0,344(s5)
    8000210e:	00001097          	auipc	ra,0x1
    80002112:	77e080e7          	jalr	1918(ra) # 8000388c <idup>
    80002116:	14a9bc23          	sd	a0,344(s3)
  safestrcpy(np->name, p->name, sizeof(p->name));
    8000211a:	4641                	li	a2,16
    8000211c:	160a8593          	add	a1,s5,352
    80002120:	16098513          	add	a0,s3,352
    80002124:	fffff097          	auipc	ra,0xfffff
    80002128:	d24080e7          	jalr	-732(ra) # 80000e48 <safestrcpy>
  pid = np->pid;
    8000212c:	0389a483          	lw	s1,56(s3)
  np->state = RUNNABLE;
    80002130:	4789                	li	a5,2
    80002132:	00f9ac23          	sw	a5,24(s3)
  release(&np->lock);
    80002136:	854e                	mv	a0,s3
    80002138:	fffff097          	auipc	ra,0xfffff
    8000213c:	b78080e7          	jalr	-1160(ra) # 80000cb0 <release>
}
    80002140:	8526                	mv	a0,s1
    80002142:	70e2                	ld	ra,56(sp)
    80002144:	7442                	ld	s0,48(sp)
    80002146:	74a2                	ld	s1,40(sp)
    80002148:	7902                	ld	s2,32(sp)
    8000214a:	69e2                	ld	s3,24(sp)
    8000214c:	6a42                	ld	s4,16(sp)
    8000214e:	6aa2                	ld	s5,8(sp)
    80002150:	6121                	add	sp,sp,64
    80002152:	8082                	ret
    return -1;
    80002154:	54fd                	li	s1,-1
    80002156:	b7ed                	j	80002140 <fork+0x126>

0000000080002158 <reparent>:
{
    80002158:	7179                	add	sp,sp,-48
    8000215a:	f406                	sd	ra,40(sp)
    8000215c:	f022                	sd	s0,32(sp)
    8000215e:	ec26                	sd	s1,24(sp)
    80002160:	e84a                	sd	s2,16(sp)
    80002162:	e44e                	sd	s3,8(sp)
    80002164:	e052                	sd	s4,0(sp)
    80002166:	1800                	add	s0,sp,48
    80002168:	892a                	mv	s2,a0
  for(pp = proc; pp < &proc[NPROC]; pp++){
    8000216a:	00010497          	auipc	s1,0x10
    8000216e:	bfe48493          	add	s1,s1,-1026 # 80011d68 <proc>
      pp->parent = initproc;
    80002172:	00007a17          	auipc	s4,0x7
    80002176:	ea6a0a13          	add	s4,s4,-346 # 80009018 <initproc>
  for(pp = proc; pp < &proc[NPROC]; pp++){
    8000217a:	00015997          	auipc	s3,0x15
    8000217e:	7ee98993          	add	s3,s3,2030 # 80017968 <tickslock>
    80002182:	a029                	j	8000218c <reparent+0x34>
    80002184:	17048493          	add	s1,s1,368
    80002188:	03348363          	beq	s1,s3,800021ae <reparent+0x56>
    if(pp->parent == p){
    8000218c:	709c                	ld	a5,32(s1)
    8000218e:	ff279be3          	bne	a5,s2,80002184 <reparent+0x2c>
      acquire(&pp->lock);
    80002192:	8526                	mv	a0,s1
    80002194:	fffff097          	auipc	ra,0xfffff
    80002198:	a68080e7          	jalr	-1432(ra) # 80000bfc <acquire>
      pp->parent = initproc;
    8000219c:	000a3783          	ld	a5,0(s4)
    800021a0:	f09c                	sd	a5,32(s1)
      release(&pp->lock);
    800021a2:	8526                	mv	a0,s1
    800021a4:	fffff097          	auipc	ra,0xfffff
    800021a8:	b0c080e7          	jalr	-1268(ra) # 80000cb0 <release>
    800021ac:	bfe1                	j	80002184 <reparent+0x2c>
}
    800021ae:	70a2                	ld	ra,40(sp)
    800021b0:	7402                	ld	s0,32(sp)
    800021b2:	64e2                	ld	s1,24(sp)
    800021b4:	6942                	ld	s2,16(sp)
    800021b6:	69a2                	ld	s3,8(sp)
    800021b8:	6a02                	ld	s4,0(sp)
    800021ba:	6145                	add	sp,sp,48
    800021bc:	8082                	ret

00000000800021be <scheduler>:
{
    800021be:	715d                	add	sp,sp,-80
    800021c0:	e486                	sd	ra,72(sp)
    800021c2:	e0a2                	sd	s0,64(sp)
    800021c4:	fc26                	sd	s1,56(sp)
    800021c6:	f84a                	sd	s2,48(sp)
    800021c8:	f44e                	sd	s3,40(sp)
    800021ca:	f052                	sd	s4,32(sp)
    800021cc:	ec56                	sd	s5,24(sp)
    800021ce:	e85a                	sd	s6,16(sp)
    800021d0:	e45e                	sd	s7,8(sp)
    800021d2:	e062                	sd	s8,0(sp)
    800021d4:	0880                	add	s0,sp,80
    800021d6:	8792                	mv	a5,tp
  int id = r_tp();
    800021d8:	2781                	sext.w	a5,a5
  c->proc = 0;
    800021da:	00779b13          	sll	s6,a5,0x7
    800021de:	0000f717          	auipc	a4,0xf
    800021e2:	77270713          	add	a4,a4,1906 # 80011950 <pid_lock>
    800021e6:	975a                	add	a4,a4,s6
    800021e8:	00073c23          	sd	zero,24(a4)
        swtch(&c->context, &p->context);
    800021ec:	0000f717          	auipc	a4,0xf
    800021f0:	78470713          	add	a4,a4,1924 # 80011970 <cpus+0x8>
    800021f4:	9b3a                	add	s6,s6,a4
        c->proc = p;
    800021f6:	079e                	sll	a5,a5,0x7
    800021f8:	0000fa17          	auipc	s4,0xf
    800021fc:	758a0a13          	add	s4,s4,1880 # 80011950 <pid_lock>
    80002200:	9a3e                	add	s4,s4,a5
        w_satp(MAKE_SATP(p->ukpagetable));
    80002202:	5bfd                	li	s7,-1
    80002204:	1bfe                	sll	s7,s7,0x3f
    for(p = proc; p < &proc[NPROC]; p++) {
    80002206:	00015997          	auipc	s3,0x15
    8000220a:	76298993          	add	s3,s3,1890 # 80017968 <tickslock>
    8000220e:	a0bd                	j	8000227c <scheduler+0xbe>
      release(&p->lock);
    80002210:	8526                	mv	a0,s1
    80002212:	fffff097          	auipc	ra,0xfffff
    80002216:	a9e080e7          	jalr	-1378(ra) # 80000cb0 <release>
    for(p = proc; p < &proc[NPROC]; p++) {
    8000221a:	17048493          	add	s1,s1,368
    8000221e:	05348563          	beq	s1,s3,80002268 <scheduler+0xaa>
      acquire(&p->lock);
    80002222:	8526                	mv	a0,s1
    80002224:	fffff097          	auipc	ra,0xfffff
    80002228:	9d8080e7          	jalr	-1576(ra) # 80000bfc <acquire>
      if(p->state == RUNNABLE) {
    8000222c:	4c9c                	lw	a5,24(s1)
    8000222e:	ff2791e3          	bne	a5,s2,80002210 <scheduler+0x52>
        p->state = RUNNING;
    80002232:	0154ac23          	sw	s5,24(s1)
        c->proc = p;
    80002236:	009a3c23          	sd	s1,24(s4)
        w_satp(MAKE_SATP(p->ukpagetable));
    8000223a:	6cbc                	ld	a5,88(s1)
    8000223c:	83b1                	srl	a5,a5,0xc
    8000223e:	0177e7b3          	or	a5,a5,s7
  asm volatile("csrw satp, %0" : : "r" (x));
    80002242:	18079073          	csrw	satp,a5
  asm volatile("sfence.vma zero, zero");
    80002246:	12000073          	sfence.vma
        swtch(&c->context, &p->context);
    8000224a:	06848593          	add	a1,s1,104
    8000224e:	855a                	mv	a0,s6
    80002250:	00000097          	auipc	ra,0x0
    80002254:	61a080e7          	jalr	1562(ra) # 8000286a <swtch>
        c->proc = 0;
    80002258:	000a3c23          	sd	zero,24(s4)
        kvminithart();
    8000225c:	fffff097          	auipc	ra,0xfffff
    80002260:	e5c080e7          	jalr	-420(ra) # 800010b8 <kvminithart>
        found = 1;
    80002264:	4c05                	li	s8,1
    80002266:	b76d                	j	80002210 <scheduler+0x52>
    if(found == 0) {
    80002268:	000c1a63          	bnez	s8,8000227c <scheduler+0xbe>
  asm volatile("csrr %0, sstatus" : "=r" (x) );
    8000226c:	100027f3          	csrr	a5,sstatus
  w_sstatus(r_sstatus() | SSTATUS_SIE);
    80002270:	0027e793          	or	a5,a5,2
  asm volatile("csrw sstatus, %0" : : "r" (x));
    80002274:	10079073          	csrw	sstatus,a5
      asm volatile("wfi");
    80002278:	10500073          	wfi
  asm volatile("csrr %0, sstatus" : "=r" (x) );
    8000227c:	100027f3          	csrr	a5,sstatus
  w_sstatus(r_sstatus() | SSTATUS_SIE);
    80002280:	0027e793          	or	a5,a5,2
  asm volatile("csrw sstatus, %0" : : "r" (x));
    80002284:	10079073          	csrw	sstatus,a5
    int found = 0;
    80002288:	4c01                	li	s8,0
    for(p = proc; p < &proc[NPROC]; p++) {
    8000228a:	00010497          	auipc	s1,0x10
    8000228e:	ade48493          	add	s1,s1,-1314 # 80011d68 <proc>
      if(p->state == RUNNABLE) {
    80002292:	4909                	li	s2,2
        p->state = RUNNING;
    80002294:	4a8d                	li	s5,3
    80002296:	b771                	j	80002222 <scheduler+0x64>

0000000080002298 <sched>:
{
    80002298:	7179                	add	sp,sp,-48
    8000229a:	f406                	sd	ra,40(sp)
    8000229c:	f022                	sd	s0,32(sp)
    8000229e:	ec26                	sd	s1,24(sp)
    800022a0:	e84a                	sd	s2,16(sp)
    800022a2:	e44e                	sd	s3,8(sp)
    800022a4:	1800                	add	s0,sp,48
  struct proc *p = myproc();
    800022a6:	fffff097          	auipc	ra,0xfffff
    800022aa:	792080e7          	jalr	1938(ra) # 80001a38 <myproc>
    800022ae:	84aa                	mv	s1,a0
  if(!holding(&p->lock))
    800022b0:	fffff097          	auipc	ra,0xfffff
    800022b4:	8d2080e7          	jalr	-1838(ra) # 80000b82 <holding>
    800022b8:	c93d                	beqz	a0,8000232e <sched+0x96>
  asm volatile("mv %0, tp" : "=r" (x) );
    800022ba:	8792                	mv	a5,tp
  if(mycpu()->noff != 1)
    800022bc:	2781                	sext.w	a5,a5
    800022be:	079e                	sll	a5,a5,0x7
    800022c0:	0000f717          	auipc	a4,0xf
    800022c4:	69070713          	add	a4,a4,1680 # 80011950 <pid_lock>
    800022c8:	97ba                	add	a5,a5,a4
    800022ca:	0907a703          	lw	a4,144(a5)
    800022ce:	4785                	li	a5,1
    800022d0:	06f71763          	bne	a4,a5,8000233e <sched+0xa6>
  if(p->state == RUNNING)
    800022d4:	4c98                	lw	a4,24(s1)
    800022d6:	478d                	li	a5,3
    800022d8:	06f70b63          	beq	a4,a5,8000234e <sched+0xb6>
  asm volatile("csrr %0, sstatus" : "=r" (x) );
    800022dc:	100027f3          	csrr	a5,sstatus
  return (x & SSTATUS_SIE) != 0;
    800022e0:	8b89                	and	a5,a5,2
  if(intr_get())
    800022e2:	efb5                	bnez	a5,8000235e <sched+0xc6>
  asm volatile("mv %0, tp" : "=r" (x) );
    800022e4:	8792                	mv	a5,tp
  intena = mycpu()->intena;
    800022e6:	0000f917          	auipc	s2,0xf
    800022ea:	66a90913          	add	s2,s2,1642 # 80011950 <pid_lock>
    800022ee:	2781                	sext.w	a5,a5
    800022f0:	079e                	sll	a5,a5,0x7
    800022f2:	97ca                	add	a5,a5,s2
    800022f4:	0947a983          	lw	s3,148(a5)
    800022f8:	8792                	mv	a5,tp
  swtch(&p->context, &mycpu()->context);
    800022fa:	2781                	sext.w	a5,a5
    800022fc:	079e                	sll	a5,a5,0x7
    800022fe:	0000f597          	auipc	a1,0xf
    80002302:	67258593          	add	a1,a1,1650 # 80011970 <cpus+0x8>
    80002306:	95be                	add	a1,a1,a5
    80002308:	06848513          	add	a0,s1,104
    8000230c:	00000097          	auipc	ra,0x0
    80002310:	55e080e7          	jalr	1374(ra) # 8000286a <swtch>
    80002314:	8792                	mv	a5,tp
  mycpu()->intena = intena;
    80002316:	2781                	sext.w	a5,a5
    80002318:	079e                	sll	a5,a5,0x7
    8000231a:	993e                	add	s2,s2,a5
    8000231c:	09392a23          	sw	s3,148(s2)
}
    80002320:	70a2                	ld	ra,40(sp)
    80002322:	7402                	ld	s0,32(sp)
    80002324:	64e2                	ld	s1,24(sp)
    80002326:	6942                	ld	s2,16(sp)
    80002328:	69a2                	ld	s3,8(sp)
    8000232a:	6145                	add	sp,sp,48
    8000232c:	8082                	ret
    panic("sched p->lock");
    8000232e:	00006517          	auipc	a0,0x6
    80002332:	f3a50513          	add	a0,a0,-198 # 80008268 <digits+0x238>
    80002336:	ffffe097          	auipc	ra,0xffffe
    8000233a:	20c080e7          	jalr	524(ra) # 80000542 <panic>
    panic("sched locks");
    8000233e:	00006517          	auipc	a0,0x6
    80002342:	f3a50513          	add	a0,a0,-198 # 80008278 <digits+0x248>
    80002346:	ffffe097          	auipc	ra,0xffffe
    8000234a:	1fc080e7          	jalr	508(ra) # 80000542 <panic>
    panic("sched running");
    8000234e:	00006517          	auipc	a0,0x6
    80002352:	f3a50513          	add	a0,a0,-198 # 80008288 <digits+0x258>
    80002356:	ffffe097          	auipc	ra,0xffffe
    8000235a:	1ec080e7          	jalr	492(ra) # 80000542 <panic>
    panic("sched interruptible");
    8000235e:	00006517          	auipc	a0,0x6
    80002362:	f3a50513          	add	a0,a0,-198 # 80008298 <digits+0x268>
    80002366:	ffffe097          	auipc	ra,0xffffe
    8000236a:	1dc080e7          	jalr	476(ra) # 80000542 <panic>

000000008000236e <exit>:
{
    8000236e:	7179                	add	sp,sp,-48
    80002370:	f406                	sd	ra,40(sp)
    80002372:	f022                	sd	s0,32(sp)
    80002374:	ec26                	sd	s1,24(sp)
    80002376:	e84a                	sd	s2,16(sp)
    80002378:	e44e                	sd	s3,8(sp)
    8000237a:	e052                	sd	s4,0(sp)
    8000237c:	1800                	add	s0,sp,48
    8000237e:	8a2a                	mv	s4,a0
  struct proc *p = myproc();
    80002380:	fffff097          	auipc	ra,0xfffff
    80002384:	6b8080e7          	jalr	1720(ra) # 80001a38 <myproc>
    80002388:	89aa                	mv	s3,a0
  if(p == initproc)
    8000238a:	00007797          	auipc	a5,0x7
    8000238e:	c8e7b783          	ld	a5,-882(a5) # 80009018 <initproc>
    80002392:	0d850493          	add	s1,a0,216
    80002396:	15850913          	add	s2,a0,344
    8000239a:	02a79363          	bne	a5,a0,800023c0 <exit+0x52>
    panic("init exiting");
    8000239e:	00006517          	auipc	a0,0x6
    800023a2:	f1250513          	add	a0,a0,-238 # 800082b0 <digits+0x280>
    800023a6:	ffffe097          	auipc	ra,0xffffe
    800023aa:	19c080e7          	jalr	412(ra) # 80000542 <panic>
      fileclose(f);
    800023ae:	00002097          	auipc	ra,0x2
    800023b2:	386080e7          	jalr	902(ra) # 80004734 <fileclose>
      p->ofile[fd] = 0;
    800023b6:	0004b023          	sd	zero,0(s1)
  for(int fd = 0; fd < NOFILE; fd++){
    800023ba:	04a1                	add	s1,s1,8
    800023bc:	01248563          	beq	s1,s2,800023c6 <exit+0x58>
    if(p->ofile[fd]){
    800023c0:	6088                	ld	a0,0(s1)
    800023c2:	f575                	bnez	a0,800023ae <exit+0x40>
    800023c4:	bfdd                	j	800023ba <exit+0x4c>
  begin_op();
    800023c6:	00002097          	auipc	ra,0x2
    800023ca:	ea4080e7          	jalr	-348(ra) # 8000426a <begin_op>
  iput(p->cwd);
    800023ce:	1589b503          	ld	a0,344(s3)
    800023d2:	00001097          	auipc	ra,0x1
    800023d6:	6b2080e7          	jalr	1714(ra) # 80003a84 <iput>
  end_op();
    800023da:	00002097          	auipc	ra,0x2
    800023de:	f0a080e7          	jalr	-246(ra) # 800042e4 <end_op>
  p->cwd = 0;
    800023e2:	1409bc23          	sd	zero,344(s3)
  acquire(&initproc->lock);
    800023e6:	00007497          	auipc	s1,0x7
    800023ea:	c3248493          	add	s1,s1,-974 # 80009018 <initproc>
    800023ee:	6088                	ld	a0,0(s1)
    800023f0:	fffff097          	auipc	ra,0xfffff
    800023f4:	80c080e7          	jalr	-2036(ra) # 80000bfc <acquire>
  wakeup1(initproc);
    800023f8:	6088                	ld	a0,0(s1)
    800023fa:	fffff097          	auipc	ra,0xfffff
    800023fe:	566080e7          	jalr	1382(ra) # 80001960 <wakeup1>
  release(&initproc->lock);
    80002402:	6088                	ld	a0,0(s1)
    80002404:	fffff097          	auipc	ra,0xfffff
    80002408:	8ac080e7          	jalr	-1876(ra) # 80000cb0 <release>
  acquire(&p->lock);
    8000240c:	854e                	mv	a0,s3
    8000240e:	ffffe097          	auipc	ra,0xffffe
    80002412:	7ee080e7          	jalr	2030(ra) # 80000bfc <acquire>
  struct proc *original_parent = p->parent;
    80002416:	0209b483          	ld	s1,32(s3)
  release(&p->lock);
    8000241a:	854e                	mv	a0,s3
    8000241c:	fffff097          	auipc	ra,0xfffff
    80002420:	894080e7          	jalr	-1900(ra) # 80000cb0 <release>
  acquire(&original_parent->lock);
    80002424:	8526                	mv	a0,s1
    80002426:	ffffe097          	auipc	ra,0xffffe
    8000242a:	7d6080e7          	jalr	2006(ra) # 80000bfc <acquire>
  acquire(&p->lock);
    8000242e:	854e                	mv	a0,s3
    80002430:	ffffe097          	auipc	ra,0xffffe
    80002434:	7cc080e7          	jalr	1996(ra) # 80000bfc <acquire>
  reparent(p);
    80002438:	854e                	mv	a0,s3
    8000243a:	00000097          	auipc	ra,0x0
    8000243e:	d1e080e7          	jalr	-738(ra) # 80002158 <reparent>
  wakeup1(original_parent);
    80002442:	8526                	mv	a0,s1
    80002444:	fffff097          	auipc	ra,0xfffff
    80002448:	51c080e7          	jalr	1308(ra) # 80001960 <wakeup1>
  p->xstate = status;
    8000244c:	0349aa23          	sw	s4,52(s3)
  p->state = ZOMBIE;
    80002450:	4791                	li	a5,4
    80002452:	00f9ac23          	sw	a5,24(s3)
  release(&original_parent->lock);
    80002456:	8526                	mv	a0,s1
    80002458:	fffff097          	auipc	ra,0xfffff
    8000245c:	858080e7          	jalr	-1960(ra) # 80000cb0 <release>
  sched();
    80002460:	00000097          	auipc	ra,0x0
    80002464:	e38080e7          	jalr	-456(ra) # 80002298 <sched>
  panic("zombie exit");
    80002468:	00006517          	auipc	a0,0x6
    8000246c:	e5850513          	add	a0,a0,-424 # 800082c0 <digits+0x290>
    80002470:	ffffe097          	auipc	ra,0xffffe
    80002474:	0d2080e7          	jalr	210(ra) # 80000542 <panic>

0000000080002478 <yield>:
{
    80002478:	1101                	add	sp,sp,-32
    8000247a:	ec06                	sd	ra,24(sp)
    8000247c:	e822                	sd	s0,16(sp)
    8000247e:	e426                	sd	s1,8(sp)
    80002480:	1000                	add	s0,sp,32
  struct proc *p = myproc();
    80002482:	fffff097          	auipc	ra,0xfffff
    80002486:	5b6080e7          	jalr	1462(ra) # 80001a38 <myproc>
    8000248a:	84aa                	mv	s1,a0
  acquire(&p->lock);
    8000248c:	ffffe097          	auipc	ra,0xffffe
    80002490:	770080e7          	jalr	1904(ra) # 80000bfc <acquire>
  p->state = RUNNABLE;
    80002494:	4789                	li	a5,2
    80002496:	cc9c                	sw	a5,24(s1)
  sched();
    80002498:	00000097          	auipc	ra,0x0
    8000249c:	e00080e7          	jalr	-512(ra) # 80002298 <sched>
  release(&p->lock);
    800024a0:	8526                	mv	a0,s1
    800024a2:	fffff097          	auipc	ra,0xfffff
    800024a6:	80e080e7          	jalr	-2034(ra) # 80000cb0 <release>
}
    800024aa:	60e2                	ld	ra,24(sp)
    800024ac:	6442                	ld	s0,16(sp)
    800024ae:	64a2                	ld	s1,8(sp)
    800024b0:	6105                	add	sp,sp,32
    800024b2:	8082                	ret

00000000800024b4 <sleep>:
{
    800024b4:	7179                	add	sp,sp,-48
    800024b6:	f406                	sd	ra,40(sp)
    800024b8:	f022                	sd	s0,32(sp)
    800024ba:	ec26                	sd	s1,24(sp)
    800024bc:	e84a                	sd	s2,16(sp)
    800024be:	e44e                	sd	s3,8(sp)
    800024c0:	1800                	add	s0,sp,48
    800024c2:	89aa                	mv	s3,a0
    800024c4:	892e                	mv	s2,a1
  struct proc *p = myproc();
    800024c6:	fffff097          	auipc	ra,0xfffff
    800024ca:	572080e7          	jalr	1394(ra) # 80001a38 <myproc>
    800024ce:	84aa                	mv	s1,a0
  if(lk != &p->lock){  //DOC: sleeplock0
    800024d0:	05250663          	beq	a0,s2,8000251c <sleep+0x68>
    acquire(&p->lock);  //DOC: sleeplock1
    800024d4:	ffffe097          	auipc	ra,0xffffe
    800024d8:	728080e7          	jalr	1832(ra) # 80000bfc <acquire>
    release(lk);
    800024dc:	854a                	mv	a0,s2
    800024de:	ffffe097          	auipc	ra,0xffffe
    800024e2:	7d2080e7          	jalr	2002(ra) # 80000cb0 <release>
  p->chan = chan;
    800024e6:	0334b423          	sd	s3,40(s1)
  p->state = SLEEPING;
    800024ea:	4785                	li	a5,1
    800024ec:	cc9c                	sw	a5,24(s1)
  sched();
    800024ee:	00000097          	auipc	ra,0x0
    800024f2:	daa080e7          	jalr	-598(ra) # 80002298 <sched>
  p->chan = 0;
    800024f6:	0204b423          	sd	zero,40(s1)
    release(&p->lock);
    800024fa:	8526                	mv	a0,s1
    800024fc:	ffffe097          	auipc	ra,0xffffe
    80002500:	7b4080e7          	jalr	1972(ra) # 80000cb0 <release>
    acquire(lk);
    80002504:	854a                	mv	a0,s2
    80002506:	ffffe097          	auipc	ra,0xffffe
    8000250a:	6f6080e7          	jalr	1782(ra) # 80000bfc <acquire>
}
    8000250e:	70a2                	ld	ra,40(sp)
    80002510:	7402                	ld	s0,32(sp)
    80002512:	64e2                	ld	s1,24(sp)
    80002514:	6942                	ld	s2,16(sp)
    80002516:	69a2                	ld	s3,8(sp)
    80002518:	6145                	add	sp,sp,48
    8000251a:	8082                	ret
  p->chan = chan;
    8000251c:	03353423          	sd	s3,40(a0)
  p->state = SLEEPING;
    80002520:	4785                	li	a5,1
    80002522:	cd1c                	sw	a5,24(a0)
  sched();
    80002524:	00000097          	auipc	ra,0x0
    80002528:	d74080e7          	jalr	-652(ra) # 80002298 <sched>
  p->chan = 0;
    8000252c:	0204b423          	sd	zero,40(s1)
  if(lk != &p->lock){
    80002530:	bff9                	j	8000250e <sleep+0x5a>

0000000080002532 <wait>:
{
    80002532:	715d                	add	sp,sp,-80
    80002534:	e486                	sd	ra,72(sp)
    80002536:	e0a2                	sd	s0,64(sp)
    80002538:	fc26                	sd	s1,56(sp)
    8000253a:	f84a                	sd	s2,48(sp)
    8000253c:	f44e                	sd	s3,40(sp)
    8000253e:	f052                	sd	s4,32(sp)
    80002540:	ec56                	sd	s5,24(sp)
    80002542:	e85a                	sd	s6,16(sp)
    80002544:	e45e                	sd	s7,8(sp)
    80002546:	0880                	add	s0,sp,80
    80002548:	8b2a                	mv	s6,a0
  struct proc *p = myproc();
    8000254a:	fffff097          	auipc	ra,0xfffff
    8000254e:	4ee080e7          	jalr	1262(ra) # 80001a38 <myproc>
    80002552:	892a                	mv	s2,a0
  acquire(&p->lock);
    80002554:	ffffe097          	auipc	ra,0xffffe
    80002558:	6a8080e7          	jalr	1704(ra) # 80000bfc <acquire>
    havekids = 0;
    8000255c:	4b81                	li	s7,0
        if(np->state == ZOMBIE){
    8000255e:	4a11                	li	s4,4
        havekids = 1;
    80002560:	4a85                	li	s5,1
    for(np = proc; np < &proc[NPROC]; np++){
    80002562:	00015997          	auipc	s3,0x15
    80002566:	40698993          	add	s3,s3,1030 # 80017968 <tickslock>
    8000256a:	a845                	j	8000261a <wait+0xe8>
          pid = np->pid;
    8000256c:	0384a983          	lw	s3,56(s1)
          if(addr != 0 && copyout(p->pagetable, addr, (char *)&np->xstate,
    80002570:	000b0e63          	beqz	s6,8000258c <wait+0x5a>
    80002574:	4691                	li	a3,4
    80002576:	03448613          	add	a2,s1,52
    8000257a:	85da                	mv	a1,s6
    8000257c:	05093503          	ld	a0,80(s2)
    80002580:	fffff097          	auipc	ra,0xfffff
    80002584:	324080e7          	jalr	804(ra) # 800018a4 <copyout>
    80002588:	02054d63          	bltz	a0,800025c2 <wait+0x90>
          freeproc(np);
    8000258c:	8526                	mv	a0,s1
    8000258e:	fffff097          	auipc	ra,0xfffff
    80002592:	774080e7          	jalr	1908(ra) # 80001d02 <freeproc>
          release(&np->lock);
    80002596:	8526                	mv	a0,s1
    80002598:	ffffe097          	auipc	ra,0xffffe
    8000259c:	718080e7          	jalr	1816(ra) # 80000cb0 <release>
          release(&p->lock);
    800025a0:	854a                	mv	a0,s2
    800025a2:	ffffe097          	auipc	ra,0xffffe
    800025a6:	70e080e7          	jalr	1806(ra) # 80000cb0 <release>
}
    800025aa:	854e                	mv	a0,s3
    800025ac:	60a6                	ld	ra,72(sp)
    800025ae:	6406                	ld	s0,64(sp)
    800025b0:	74e2                	ld	s1,56(sp)
    800025b2:	7942                	ld	s2,48(sp)
    800025b4:	79a2                	ld	s3,40(sp)
    800025b6:	7a02                	ld	s4,32(sp)
    800025b8:	6ae2                	ld	s5,24(sp)
    800025ba:	6b42                	ld	s6,16(sp)
    800025bc:	6ba2                	ld	s7,8(sp)
    800025be:	6161                	add	sp,sp,80
    800025c0:	8082                	ret
            release(&np->lock);
    800025c2:	8526                	mv	a0,s1
    800025c4:	ffffe097          	auipc	ra,0xffffe
    800025c8:	6ec080e7          	jalr	1772(ra) # 80000cb0 <release>
            release(&p->lock);
    800025cc:	854a                	mv	a0,s2
    800025ce:	ffffe097          	auipc	ra,0xffffe
    800025d2:	6e2080e7          	jalr	1762(ra) # 80000cb0 <release>
            return -1;
    800025d6:	59fd                	li	s3,-1
    800025d8:	bfc9                	j	800025aa <wait+0x78>
    for(np = proc; np < &proc[NPROC]; np++){
    800025da:	17048493          	add	s1,s1,368
    800025de:	03348463          	beq	s1,s3,80002606 <wait+0xd4>
      if(np->parent == p){
    800025e2:	709c                	ld	a5,32(s1)
    800025e4:	ff279be3          	bne	a5,s2,800025da <wait+0xa8>
        acquire(&np->lock);
    800025e8:	8526                	mv	a0,s1
    800025ea:	ffffe097          	auipc	ra,0xffffe
    800025ee:	612080e7          	jalr	1554(ra) # 80000bfc <acquire>
        if(np->state == ZOMBIE){
    800025f2:	4c9c                	lw	a5,24(s1)
    800025f4:	f7478ce3          	beq	a5,s4,8000256c <wait+0x3a>
        release(&np->lock);
    800025f8:	8526                	mv	a0,s1
    800025fa:	ffffe097          	auipc	ra,0xffffe
    800025fe:	6b6080e7          	jalr	1718(ra) # 80000cb0 <release>
        havekids = 1;
    80002602:	8756                	mv	a4,s5
    80002604:	bfd9                	j	800025da <wait+0xa8>
    if(!havekids || p->killed){
    80002606:	c305                	beqz	a4,80002626 <wait+0xf4>
    80002608:	03092783          	lw	a5,48(s2)
    8000260c:	ef89                	bnez	a5,80002626 <wait+0xf4>
    sleep(p, &p->lock);  //DOC: wait-sleep
    8000260e:	85ca                	mv	a1,s2
    80002610:	854a                	mv	a0,s2
    80002612:	00000097          	auipc	ra,0x0
    80002616:	ea2080e7          	jalr	-350(ra) # 800024b4 <sleep>
    havekids = 0;
    8000261a:	875e                	mv	a4,s7
    for(np = proc; np < &proc[NPROC]; np++){
    8000261c:	0000f497          	auipc	s1,0xf
    80002620:	74c48493          	add	s1,s1,1868 # 80011d68 <proc>
    80002624:	bf7d                	j	800025e2 <wait+0xb0>
      release(&p->lock);
    80002626:	854a                	mv	a0,s2
    80002628:	ffffe097          	auipc	ra,0xffffe
    8000262c:	688080e7          	jalr	1672(ra) # 80000cb0 <release>
      return -1;
    80002630:	59fd                	li	s3,-1
    80002632:	bfa5                	j	800025aa <wait+0x78>

0000000080002634 <wakeup>:
{
    80002634:	7139                	add	sp,sp,-64
    80002636:	fc06                	sd	ra,56(sp)
    80002638:	f822                	sd	s0,48(sp)
    8000263a:	f426                	sd	s1,40(sp)
    8000263c:	f04a                	sd	s2,32(sp)
    8000263e:	ec4e                	sd	s3,24(sp)
    80002640:	e852                	sd	s4,16(sp)
    80002642:	e456                	sd	s5,8(sp)
    80002644:	0080                	add	s0,sp,64
    80002646:	8a2a                	mv	s4,a0
  for(p = proc; p < &proc[NPROC]; p++) {
    80002648:	0000f497          	auipc	s1,0xf
    8000264c:	72048493          	add	s1,s1,1824 # 80011d68 <proc>
    if(p->state == SLEEPING && p->chan == chan) {
    80002650:	4985                	li	s3,1
      p->state = RUNNABLE;
    80002652:	4a89                	li	s5,2
  for(p = proc; p < &proc[NPROC]; p++) {
    80002654:	00015917          	auipc	s2,0x15
    80002658:	31490913          	add	s2,s2,788 # 80017968 <tickslock>
    8000265c:	a811                	j	80002670 <wakeup+0x3c>
    release(&p->lock);
    8000265e:	8526                	mv	a0,s1
    80002660:	ffffe097          	auipc	ra,0xffffe
    80002664:	650080e7          	jalr	1616(ra) # 80000cb0 <release>
  for(p = proc; p < &proc[NPROC]; p++) {
    80002668:	17048493          	add	s1,s1,368
    8000266c:	03248063          	beq	s1,s2,8000268c <wakeup+0x58>
    acquire(&p->lock);
    80002670:	8526                	mv	a0,s1
    80002672:	ffffe097          	auipc	ra,0xffffe
    80002676:	58a080e7          	jalr	1418(ra) # 80000bfc <acquire>
    if(p->state == SLEEPING && p->chan == chan) {
    8000267a:	4c9c                	lw	a5,24(s1)
    8000267c:	ff3791e3          	bne	a5,s3,8000265e <wakeup+0x2a>
    80002680:	749c                	ld	a5,40(s1)
    80002682:	fd479ee3          	bne	a5,s4,8000265e <wakeup+0x2a>
      p->state = RUNNABLE;
    80002686:	0154ac23          	sw	s5,24(s1)
    8000268a:	bfd1                	j	8000265e <wakeup+0x2a>
}
    8000268c:	70e2                	ld	ra,56(sp)
    8000268e:	7442                	ld	s0,48(sp)
    80002690:	74a2                	ld	s1,40(sp)
    80002692:	7902                	ld	s2,32(sp)
    80002694:	69e2                	ld	s3,24(sp)
    80002696:	6a42                	ld	s4,16(sp)
    80002698:	6aa2                	ld	s5,8(sp)
    8000269a:	6121                	add	sp,sp,64
    8000269c:	8082                	ret

000000008000269e <kill>:
// Kill the process with the given pid.
// The victim won't exit until it tries to return
// to user space (see usertrap() in trap.c).
int
kill(int pid)
{
    8000269e:	7179                	add	sp,sp,-48
    800026a0:	f406                	sd	ra,40(sp)
    800026a2:	f022                	sd	s0,32(sp)
    800026a4:	ec26                	sd	s1,24(sp)
    800026a6:	e84a                	sd	s2,16(sp)
    800026a8:	e44e                	sd	s3,8(sp)
    800026aa:	1800                	add	s0,sp,48
    800026ac:	892a                	mv	s2,a0
  struct proc *p;

  for(p = proc; p < &proc[NPROC]; p++){
    800026ae:	0000f497          	auipc	s1,0xf
    800026b2:	6ba48493          	add	s1,s1,1722 # 80011d68 <proc>
    800026b6:	00015997          	auipc	s3,0x15
    800026ba:	2b298993          	add	s3,s3,690 # 80017968 <tickslock>
    acquire(&p->lock);
    800026be:	8526                	mv	a0,s1
    800026c0:	ffffe097          	auipc	ra,0xffffe
    800026c4:	53c080e7          	jalr	1340(ra) # 80000bfc <acquire>
    if(p->pid == pid){
    800026c8:	5c9c                	lw	a5,56(s1)
    800026ca:	01278d63          	beq	a5,s2,800026e4 <kill+0x46>
        p->state = RUNNABLE;
      }
      release(&p->lock);
      return 0;
    }
    release(&p->lock);
    800026ce:	8526                	mv	a0,s1
    800026d0:	ffffe097          	auipc	ra,0xffffe
    800026d4:	5e0080e7          	jalr	1504(ra) # 80000cb0 <release>
  for(p = proc; p < &proc[NPROC]; p++){
    800026d8:	17048493          	add	s1,s1,368
    800026dc:	ff3491e3          	bne	s1,s3,800026be <kill+0x20>
  }
  return -1;
    800026e0:	557d                	li	a0,-1
    800026e2:	a821                	j	800026fa <kill+0x5c>
      p->killed = 1;
    800026e4:	4785                	li	a5,1
    800026e6:	d89c                	sw	a5,48(s1)
      if(p->state == SLEEPING){
    800026e8:	4c98                	lw	a4,24(s1)
    800026ea:	00f70f63          	beq	a4,a5,80002708 <kill+0x6a>
      release(&p->lock);
    800026ee:	8526                	mv	a0,s1
    800026f0:	ffffe097          	auipc	ra,0xffffe
    800026f4:	5c0080e7          	jalr	1472(ra) # 80000cb0 <release>
      return 0;
    800026f8:	4501                	li	a0,0
}
    800026fa:	70a2                	ld	ra,40(sp)
    800026fc:	7402                	ld	s0,32(sp)
    800026fe:	64e2                	ld	s1,24(sp)
    80002700:	6942                	ld	s2,16(sp)
    80002702:	69a2                	ld	s3,8(sp)
    80002704:	6145                	add	sp,sp,48
    80002706:	8082                	ret
        p->state = RUNNABLE;
    80002708:	4789                	li	a5,2
    8000270a:	cc9c                	sw	a5,24(s1)
    8000270c:	b7cd                	j	800026ee <kill+0x50>

000000008000270e <either_copyout>:
// Copy to either a user address, or kernel address,
// depending on usr_dst.
// Returns 0 on success, -1 on error.
int
either_copyout(int user_dst, uint64 dst, void *src, uint64 len)
{
    8000270e:	7179                	add	sp,sp,-48
    80002710:	f406                	sd	ra,40(sp)
    80002712:	f022                	sd	s0,32(sp)
    80002714:	ec26                	sd	s1,24(sp)
    80002716:	e84a                	sd	s2,16(sp)
    80002718:	e44e                	sd	s3,8(sp)
    8000271a:	e052                	sd	s4,0(sp)
    8000271c:	1800                	add	s0,sp,48
    8000271e:	84aa                	mv	s1,a0
    80002720:	892e                	mv	s2,a1
    80002722:	89b2                	mv	s3,a2
    80002724:	8a36                	mv	s4,a3
  struct proc *p = myproc();
    80002726:	fffff097          	auipc	ra,0xfffff
    8000272a:	312080e7          	jalr	786(ra) # 80001a38 <myproc>
  if(user_dst){
    8000272e:	c08d                	beqz	s1,80002750 <either_copyout+0x42>
    return copyout(p->pagetable, dst, src, len);
    80002730:	86d2                	mv	a3,s4
    80002732:	864e                	mv	a2,s3
    80002734:	85ca                	mv	a1,s2
    80002736:	6928                	ld	a0,80(a0)
    80002738:	fffff097          	auipc	ra,0xfffff
    8000273c:	16c080e7          	jalr	364(ra) # 800018a4 <copyout>
  } else {
    memmove((char *)dst, src, len);
    return 0;
  }
}
    80002740:	70a2                	ld	ra,40(sp)
    80002742:	7402                	ld	s0,32(sp)
    80002744:	64e2                	ld	s1,24(sp)
    80002746:	6942                	ld	s2,16(sp)
    80002748:	69a2                	ld	s3,8(sp)
    8000274a:	6a02                	ld	s4,0(sp)
    8000274c:	6145                	add	sp,sp,48
    8000274e:	8082                	ret
    memmove((char *)dst, src, len);
    80002750:	000a061b          	sext.w	a2,s4
    80002754:	85ce                	mv	a1,s3
    80002756:	854a                	mv	a0,s2
    80002758:	ffffe097          	auipc	ra,0xffffe
    8000275c:	5fc080e7          	jalr	1532(ra) # 80000d54 <memmove>
    return 0;
    80002760:	8526                	mv	a0,s1
    80002762:	bff9                	j	80002740 <either_copyout+0x32>

0000000080002764 <either_copyin>:
// Copy from either a user address, or kernel address,
// depending on usr_src.
// Returns 0 on success, -1 on error.
int
either_copyin(void *dst, int user_src, uint64 src, uint64 len)
{
    80002764:	7179                	add	sp,sp,-48
    80002766:	f406                	sd	ra,40(sp)
    80002768:	f022                	sd	s0,32(sp)
    8000276a:	ec26                	sd	s1,24(sp)
    8000276c:	e84a                	sd	s2,16(sp)
    8000276e:	e44e                	sd	s3,8(sp)
    80002770:	e052                	sd	s4,0(sp)
    80002772:	1800                	add	s0,sp,48
    80002774:	892a                	mv	s2,a0
    80002776:	84ae                	mv	s1,a1
    80002778:	89b2                	mv	s3,a2
    8000277a:	8a36                	mv	s4,a3
  struct proc *p = myproc();
    8000277c:	fffff097          	auipc	ra,0xfffff
    80002780:	2bc080e7          	jalr	700(ra) # 80001a38 <myproc>
  if(user_src){
    80002784:	c08d                	beqz	s1,800027a6 <either_copyin+0x42>
    return copyin(p->pagetable, dst, src, len);
    80002786:	86d2                	mv	a3,s4
    80002788:	864e                	mv	a2,s3
    8000278a:	85ca                	mv	a1,s2
    8000278c:	6928                	ld	a0,80(a0)
    8000278e:	fffff097          	auipc	ra,0xfffff
    80002792:	1a2080e7          	jalr	418(ra) # 80001930 <copyin>
  } else {
    memmove(dst, (char*)src, len);
    return 0;
  }
}
    80002796:	70a2                	ld	ra,40(sp)
    80002798:	7402                	ld	s0,32(sp)
    8000279a:	64e2                	ld	s1,24(sp)
    8000279c:	6942                	ld	s2,16(sp)
    8000279e:	69a2                	ld	s3,8(sp)
    800027a0:	6a02                	ld	s4,0(sp)
    800027a2:	6145                	add	sp,sp,48
    800027a4:	8082                	ret
    memmove(dst, (char*)src, len);
    800027a6:	000a061b          	sext.w	a2,s4
    800027aa:	85ce                	mv	a1,s3
    800027ac:	854a                	mv	a0,s2
    800027ae:	ffffe097          	auipc	ra,0xffffe
    800027b2:	5a6080e7          	jalr	1446(ra) # 80000d54 <memmove>
    return 0;
    800027b6:	8526                	mv	a0,s1
    800027b8:	bff9                	j	80002796 <either_copyin+0x32>

00000000800027ba <procdump>:
// Print a process listing to console.  For debugging.
// Runs when user types ^P on console.
// No lock to avoid wedging a stuck machine further.
void
procdump(void)
{
    800027ba:	715d                	add	sp,sp,-80
    800027bc:	e486                	sd	ra,72(sp)
    800027be:	e0a2                	sd	s0,64(sp)
    800027c0:	fc26                	sd	s1,56(sp)
    800027c2:	f84a                	sd	s2,48(sp)
    800027c4:	f44e                	sd	s3,40(sp)
    800027c6:	f052                	sd	s4,32(sp)
    800027c8:	ec56                	sd	s5,24(sp)
    800027ca:	e85a                	sd	s6,16(sp)
    800027cc:	e45e                	sd	s7,8(sp)
    800027ce:	0880                	add	s0,sp,80
  [ZOMBIE]    "zombie"
  };
  struct proc *p;
  char *state;

  printf("\n");
    800027d0:	00006517          	auipc	a0,0x6
    800027d4:	8e850513          	add	a0,a0,-1816 # 800080b8 <digits+0x88>
    800027d8:	ffffe097          	auipc	ra,0xffffe
    800027dc:	db4080e7          	jalr	-588(ra) # 8000058c <printf>
  for(p = proc; p < &proc[NPROC]; p++){
    800027e0:	0000f497          	auipc	s1,0xf
    800027e4:	6e848493          	add	s1,s1,1768 # 80011ec8 <proc+0x160>
    800027e8:	00015917          	auipc	s2,0x15
    800027ec:	2e090913          	add	s2,s2,736 # 80017ac8 <bcache+0x148>
    if(p->state == UNUSED)
      continue;
    if(p->state >= 0 && p->state < NELEM(states) && states[p->state])
    800027f0:	4b11                	li	s6,4
      state = states[p->state];
    else
      state = "???";
    800027f2:	00006997          	auipc	s3,0x6
    800027f6:	ade98993          	add	s3,s3,-1314 # 800082d0 <digits+0x2a0>
    printf("%d %s %s", p->pid, state, p->name);
    800027fa:	00006a97          	auipc	s5,0x6
    800027fe:	adea8a93          	add	s5,s5,-1314 # 800082d8 <digits+0x2a8>
    printf("\n");
    80002802:	00006a17          	auipc	s4,0x6
    80002806:	8b6a0a13          	add	s4,s4,-1866 # 800080b8 <digits+0x88>
    if(p->state >= 0 && p->state < NELEM(states) && states[p->state])
    8000280a:	00006b97          	auipc	s7,0x6
    8000280e:	b06b8b93          	add	s7,s7,-1274 # 80008310 <states.0>
    80002812:	a00d                	j	80002834 <procdump+0x7a>
    printf("%d %s %s", p->pid, state, p->name);
    80002814:	ed86a583          	lw	a1,-296(a3)
    80002818:	8556                	mv	a0,s5
    8000281a:	ffffe097          	auipc	ra,0xffffe
    8000281e:	d72080e7          	jalr	-654(ra) # 8000058c <printf>
    printf("\n");
    80002822:	8552                	mv	a0,s4
    80002824:	ffffe097          	auipc	ra,0xffffe
    80002828:	d68080e7          	jalr	-664(ra) # 8000058c <printf>
  for(p = proc; p < &proc[NPROC]; p++){
    8000282c:	17048493          	add	s1,s1,368
    80002830:	03248263          	beq	s1,s2,80002854 <procdump+0x9a>
    if(p->state == UNUSED)
    80002834:	86a6                	mv	a3,s1
    80002836:	eb84a783          	lw	a5,-328(s1)
    8000283a:	dbed                	beqz	a5,8000282c <procdump+0x72>
      state = "???";
    8000283c:	864e                	mv	a2,s3
    if(p->state >= 0 && p->state < NELEM(states) && states[p->state])
    8000283e:	fcfb6be3          	bltu	s6,a5,80002814 <procdump+0x5a>
    80002842:	02079713          	sll	a4,a5,0x20
    80002846:	01d75793          	srl	a5,a4,0x1d
    8000284a:	97de                	add	a5,a5,s7
    8000284c:	6390                	ld	a2,0(a5)
    8000284e:	f279                	bnez	a2,80002814 <procdump+0x5a>
      state = "???";
    80002850:	864e                	mv	a2,s3
    80002852:	b7c9                	j	80002814 <procdump+0x5a>
  }
}
    80002854:	60a6                	ld	ra,72(sp)
    80002856:	6406                	ld	s0,64(sp)
    80002858:	74e2                	ld	s1,56(sp)
    8000285a:	7942                	ld	s2,48(sp)
    8000285c:	79a2                	ld	s3,40(sp)
    8000285e:	7a02                	ld	s4,32(sp)
    80002860:	6ae2                	ld	s5,24(sp)
    80002862:	6b42                	ld	s6,16(sp)
    80002864:	6ba2                	ld	s7,8(sp)
    80002866:	6161                	add	sp,sp,80
    80002868:	8082                	ret

000000008000286a <swtch>:
    8000286a:	00153023          	sd	ra,0(a0)
    8000286e:	00253423          	sd	sp,8(a0)
    80002872:	e900                	sd	s0,16(a0)
    80002874:	ed04                	sd	s1,24(a0)
    80002876:	03253023          	sd	s2,32(a0)
    8000287a:	03353423          	sd	s3,40(a0)
    8000287e:	03453823          	sd	s4,48(a0)
    80002882:	03553c23          	sd	s5,56(a0)
    80002886:	05653023          	sd	s6,64(a0)
    8000288a:	05753423          	sd	s7,72(a0)
    8000288e:	05853823          	sd	s8,80(a0)
    80002892:	05953c23          	sd	s9,88(a0)
    80002896:	07a53023          	sd	s10,96(a0)
    8000289a:	07b53423          	sd	s11,104(a0)
    8000289e:	0005b083          	ld	ra,0(a1)
    800028a2:	0085b103          	ld	sp,8(a1)
    800028a6:	6980                	ld	s0,16(a1)
    800028a8:	6d84                	ld	s1,24(a1)
    800028aa:	0205b903          	ld	s2,32(a1)
    800028ae:	0285b983          	ld	s3,40(a1)
    800028b2:	0305ba03          	ld	s4,48(a1)
    800028b6:	0385ba83          	ld	s5,56(a1)
    800028ba:	0405bb03          	ld	s6,64(a1)
    800028be:	0485bb83          	ld	s7,72(a1)
    800028c2:	0505bc03          	ld	s8,80(a1)
    800028c6:	0585bc83          	ld	s9,88(a1)
    800028ca:	0605bd03          	ld	s10,96(a1)
    800028ce:	0685bd83          	ld	s11,104(a1)
    800028d2:	8082                	ret

00000000800028d4 <trapinit>:

extern int devintr();

void
trapinit(void)
{
    800028d4:	1141                	add	sp,sp,-16
    800028d6:	e406                	sd	ra,8(sp)
    800028d8:	e022                	sd	s0,0(sp)
    800028da:	0800                	add	s0,sp,16
  initlock(&tickslock, "time");
    800028dc:	00006597          	auipc	a1,0x6
    800028e0:	a5c58593          	add	a1,a1,-1444 # 80008338 <states.0+0x28>
    800028e4:	00015517          	auipc	a0,0x15
    800028e8:	08450513          	add	a0,a0,132 # 80017968 <tickslock>
    800028ec:	ffffe097          	auipc	ra,0xffffe
    800028f0:	280080e7          	jalr	640(ra) # 80000b6c <initlock>
}
    800028f4:	60a2                	ld	ra,8(sp)
    800028f6:	6402                	ld	s0,0(sp)
    800028f8:	0141                	add	sp,sp,16
    800028fa:	8082                	ret

00000000800028fc <trapinithart>:

// set up to take exceptions and traps while in the kernel.
void
trapinithart(void)
{
    800028fc:	1141                	add	sp,sp,-16
    800028fe:	e422                	sd	s0,8(sp)
    80002900:	0800                	add	s0,sp,16
  asm volatile("csrw stvec, %0" : : "r" (x));
    80002902:	00003797          	auipc	a5,0x3
    80002906:	4be78793          	add	a5,a5,1214 # 80005dc0 <kernelvec>
    8000290a:	10579073          	csrw	stvec,a5
  w_stvec((uint64)kernelvec);
}
    8000290e:	6422                	ld	s0,8(sp)
    80002910:	0141                	add	sp,sp,16
    80002912:	8082                	ret

0000000080002914 <usertrapret>:
//
// return to user space
//
void
usertrapret(void)
{
    80002914:	1141                	add	sp,sp,-16
    80002916:	e406                	sd	ra,8(sp)
    80002918:	e022                	sd	s0,0(sp)
    8000291a:	0800                	add	s0,sp,16
  struct proc *p = myproc();
    8000291c:	fffff097          	auipc	ra,0xfffff
    80002920:	11c080e7          	jalr	284(ra) # 80001a38 <myproc>
  asm volatile("csrr %0, sstatus" : "=r" (x) );
    80002924:	100027f3          	csrr	a5,sstatus
  w_sstatus(r_sstatus() & ~SSTATUS_SIE);
    80002928:	9bf5                	and	a5,a5,-3
  asm volatile("csrw sstatus, %0" : : "r" (x));
    8000292a:	10079073          	csrw	sstatus,a5
  // kerneltrap() to usertrap(), so turn off interrupts until
  // we're back in user space, where usertrap() is correct.
  intr_off();

  // send syscalls, interrupts, and exceptions to trampoline.S
  w_stvec(TRAMPOLINE + (uservec - trampoline));
    8000292e:	00004697          	auipc	a3,0x4
    80002932:	6d268693          	add	a3,a3,1746 # 80007000 <_trampoline>
    80002936:	00004717          	auipc	a4,0x4
    8000293a:	6ca70713          	add	a4,a4,1738 # 80007000 <_trampoline>
    8000293e:	8f15                	sub	a4,a4,a3
    80002940:	040007b7          	lui	a5,0x4000
    80002944:	17fd                	add	a5,a5,-1 # 3ffffff <_entry-0x7c000001>
    80002946:	07b2                	sll	a5,a5,0xc
    80002948:	973e                	add	a4,a4,a5
  asm volatile("csrw stvec, %0" : : "r" (x));
    8000294a:	10571073          	csrw	stvec,a4

  // set up trapframe values that uservec will need when
  // the process next re-enters the kernel.
  p->trapframe->kernel_satp = r_satp();         // kernel page table
    8000294e:	7138                	ld	a4,96(a0)
  asm volatile("csrr %0, satp" : "=r" (x) );
    80002950:	18002673          	csrr	a2,satp
    80002954:	e310                	sd	a2,0(a4)
  p->trapframe->kernel_sp = p->kstack + PGSIZE; // process's kernel stack
    80002956:	7130                	ld	a2,96(a0)
    80002958:	6138                	ld	a4,64(a0)
    8000295a:	6585                	lui	a1,0x1
    8000295c:	972e                	add	a4,a4,a1
    8000295e:	e618                	sd	a4,8(a2)
  p->trapframe->kernel_trap = (uint64)usertrap;
    80002960:	7138                	ld	a4,96(a0)
    80002962:	00000617          	auipc	a2,0x0
    80002966:	13c60613          	add	a2,a2,316 # 80002a9e <usertrap>
    8000296a:	eb10                	sd	a2,16(a4)
  p->trapframe->kernel_hartid = r_tp();         // hartid for cpuid()
    8000296c:	7138                	ld	a4,96(a0)
  asm volatile("mv %0, tp" : "=r" (x) );
    8000296e:	8612                	mv	a2,tp
    80002970:	f310                	sd	a2,32(a4)
  asm volatile("csrr %0, sstatus" : "=r" (x) );
    80002972:	10002773          	csrr	a4,sstatus
  // set up the registers that trampoline.S's sret will use
  // to get to user space.
  
  // set S Previous Privilege mode to User.
  unsigned long x = r_sstatus();
  x &= ~SSTATUS_SPP; // clear SPP to 0 for user mode
    80002976:	eff77713          	and	a4,a4,-257
  x |= SSTATUS_SPIE; // enable interrupts in user mode
    8000297a:	02076713          	or	a4,a4,32
  asm volatile("csrw sstatus, %0" : : "r" (x));
    8000297e:	10071073          	csrw	sstatus,a4
  w_sstatus(x);

  // set S Exception Program Counter to the saved user pc.
  w_sepc(p->trapframe->epc);
    80002982:	7138                	ld	a4,96(a0)
  asm volatile("csrw sepc, %0" : : "r" (x));
    80002984:	6f18                	ld	a4,24(a4)
    80002986:	14171073          	csrw	sepc,a4

  // tell trampoline.S the user page table to switch to.
  uint64 satp = MAKE_SATP(p->pagetable);
    8000298a:	692c                	ld	a1,80(a0)
    8000298c:	81b1                	srl	a1,a1,0xc

  // jump to trampoline.S at the top of memory, which 
  // switches to the user page table, restores user registers,
  // and switches to user mode with sret.
  uint64 fn = TRAMPOLINE + (userret - trampoline);
    8000298e:	00004717          	auipc	a4,0x4
    80002992:	70270713          	add	a4,a4,1794 # 80007090 <userret>
    80002996:	8f15                	sub	a4,a4,a3
    80002998:	97ba                	add	a5,a5,a4
  ((void (*)(uint64,uint64))fn)(TRAPFRAME, satp);
    8000299a:	577d                	li	a4,-1
    8000299c:	177e                	sll	a4,a4,0x3f
    8000299e:	8dd9                	or	a1,a1,a4
    800029a0:	02000537          	lui	a0,0x2000
    800029a4:	157d                	add	a0,a0,-1 # 1ffffff <_entry-0x7e000001>
    800029a6:	0536                	sll	a0,a0,0xd
    800029a8:	9782                	jalr	a5
}
    800029aa:	60a2                	ld	ra,8(sp)
    800029ac:	6402                	ld	s0,0(sp)
    800029ae:	0141                	add	sp,sp,16
    800029b0:	8082                	ret

00000000800029b2 <clockintr>:
  w_sstatus(sstatus);
}

void
clockintr()
{
    800029b2:	1101                	add	sp,sp,-32
    800029b4:	ec06                	sd	ra,24(sp)
    800029b6:	e822                	sd	s0,16(sp)
    800029b8:	e426                	sd	s1,8(sp)
    800029ba:	1000                	add	s0,sp,32
  acquire(&tickslock);
    800029bc:	00015497          	auipc	s1,0x15
    800029c0:	fac48493          	add	s1,s1,-84 # 80017968 <tickslock>
    800029c4:	8526                	mv	a0,s1
    800029c6:	ffffe097          	auipc	ra,0xffffe
    800029ca:	236080e7          	jalr	566(ra) # 80000bfc <acquire>
  ticks++;
    800029ce:	00006517          	auipc	a0,0x6
    800029d2:	65250513          	add	a0,a0,1618 # 80009020 <ticks>
    800029d6:	411c                	lw	a5,0(a0)
    800029d8:	2785                	addw	a5,a5,1
    800029da:	c11c                	sw	a5,0(a0)
  wakeup(&ticks);
    800029dc:	00000097          	auipc	ra,0x0
    800029e0:	c58080e7          	jalr	-936(ra) # 80002634 <wakeup>
  release(&tickslock);
    800029e4:	8526                	mv	a0,s1
    800029e6:	ffffe097          	auipc	ra,0xffffe
    800029ea:	2ca080e7          	jalr	714(ra) # 80000cb0 <release>
}
    800029ee:	60e2                	ld	ra,24(sp)
    800029f0:	6442                	ld	s0,16(sp)
    800029f2:	64a2                	ld	s1,8(sp)
    800029f4:	6105                	add	sp,sp,32
    800029f6:	8082                	ret

00000000800029f8 <devintr>:
  asm volatile("csrr %0, scause" : "=r" (x) );
    800029f8:	142027f3          	csrr	a5,scause
    // the SSIP bit in sip.
    w_sip(r_sip() & ~2);

    return 2;
  } else {
    return 0;
    800029fc:	4501                	li	a0,0
  if((scause & 0x8000000000000000L) &&
    800029fe:	0807df63          	bgez	a5,80002a9c <devintr+0xa4>
{
    80002a02:	1101                	add	sp,sp,-32
    80002a04:	ec06                	sd	ra,24(sp)
    80002a06:	e822                	sd	s0,16(sp)
    80002a08:	e426                	sd	s1,8(sp)
    80002a0a:	1000                	add	s0,sp,32
     (scause & 0xff) == 9){
    80002a0c:	0ff7f713          	zext.b	a4,a5
  if((scause & 0x8000000000000000L) &&
    80002a10:	46a5                	li	a3,9
    80002a12:	00d70d63          	beq	a4,a3,80002a2c <devintr+0x34>
  } else if(scause == 0x8000000000000001L){
    80002a16:	577d                	li	a4,-1
    80002a18:	177e                	sll	a4,a4,0x3f
    80002a1a:	0705                	add	a4,a4,1
    return 0;
    80002a1c:	4501                	li	a0,0
  } else if(scause == 0x8000000000000001L){
    80002a1e:	04e78e63          	beq	a5,a4,80002a7a <devintr+0x82>
  }
}
    80002a22:	60e2                	ld	ra,24(sp)
    80002a24:	6442                	ld	s0,16(sp)
    80002a26:	64a2                	ld	s1,8(sp)
    80002a28:	6105                	add	sp,sp,32
    80002a2a:	8082                	ret
    int irq = plic_claim();
    80002a2c:	00003097          	auipc	ra,0x3
    80002a30:	49c080e7          	jalr	1180(ra) # 80005ec8 <plic_claim>
    80002a34:	84aa                	mv	s1,a0
    if(irq == UART0_IRQ){
    80002a36:	47a9                	li	a5,10
    80002a38:	02f50763          	beq	a0,a5,80002a66 <devintr+0x6e>
    } else if(irq == VIRTIO0_IRQ){
    80002a3c:	4785                	li	a5,1
    80002a3e:	02f50963          	beq	a0,a5,80002a70 <devintr+0x78>
    return 1;
    80002a42:	4505                	li	a0,1
    } else if(irq){
    80002a44:	dcf9                	beqz	s1,80002a22 <devintr+0x2a>
      printf("unexpected interrupt irq=%d\n", irq);
    80002a46:	85a6                	mv	a1,s1
    80002a48:	00006517          	auipc	a0,0x6
    80002a4c:	8f850513          	add	a0,a0,-1800 # 80008340 <states.0+0x30>
    80002a50:	ffffe097          	auipc	ra,0xffffe
    80002a54:	b3c080e7          	jalr	-1220(ra) # 8000058c <printf>
      plic_complete(irq);
    80002a58:	8526                	mv	a0,s1
    80002a5a:	00003097          	auipc	ra,0x3
    80002a5e:	492080e7          	jalr	1170(ra) # 80005eec <plic_complete>
    return 1;
    80002a62:	4505                	li	a0,1
    80002a64:	bf7d                	j	80002a22 <devintr+0x2a>
      uartintr();
    80002a66:	ffffe097          	auipc	ra,0xffffe
    80002a6a:	f58080e7          	jalr	-168(ra) # 800009be <uartintr>
    if(irq)
    80002a6e:	b7ed                	j	80002a58 <devintr+0x60>
      virtio_disk_intr();
    80002a70:	00004097          	auipc	ra,0x4
    80002a74:	8ee080e7          	jalr	-1810(ra) # 8000635e <virtio_disk_intr>
    if(irq)
    80002a78:	b7c5                	j	80002a58 <devintr+0x60>
    if(cpuid() == 0){
    80002a7a:	fffff097          	auipc	ra,0xfffff
    80002a7e:	f92080e7          	jalr	-110(ra) # 80001a0c <cpuid>
    80002a82:	c901                	beqz	a0,80002a92 <devintr+0x9a>
  asm volatile("csrr %0, sip" : "=r" (x) );
    80002a84:	144027f3          	csrr	a5,sip
    w_sip(r_sip() & ~2);
    80002a88:	9bf5                	and	a5,a5,-3
  asm volatile("csrw sip, %0" : : "r" (x));
    80002a8a:	14479073          	csrw	sip,a5
    return 2;
    80002a8e:	4509                	li	a0,2
    80002a90:	bf49                	j	80002a22 <devintr+0x2a>
      clockintr();
    80002a92:	00000097          	auipc	ra,0x0
    80002a96:	f20080e7          	jalr	-224(ra) # 800029b2 <clockintr>
    80002a9a:	b7ed                	j	80002a84 <devintr+0x8c>
}
    80002a9c:	8082                	ret

0000000080002a9e <usertrap>:
{
    80002a9e:	1101                	add	sp,sp,-32
    80002aa0:	ec06                	sd	ra,24(sp)
    80002aa2:	e822                	sd	s0,16(sp)
    80002aa4:	e426                	sd	s1,8(sp)
    80002aa6:	e04a                	sd	s2,0(sp)
    80002aa8:	1000                	add	s0,sp,32
  asm volatile("csrr %0, sstatus" : "=r" (x) );
    80002aaa:	100027f3          	csrr	a5,sstatus
  if((r_sstatus() & SSTATUS_SPP) != 0)
    80002aae:	1007f793          	and	a5,a5,256
    80002ab2:	e3ad                	bnez	a5,80002b14 <usertrap+0x76>
  asm volatile("csrw stvec, %0" : : "r" (x));
    80002ab4:	00003797          	auipc	a5,0x3
    80002ab8:	30c78793          	add	a5,a5,780 # 80005dc0 <kernelvec>
    80002abc:	10579073          	csrw	stvec,a5
  struct proc *p = myproc();
    80002ac0:	fffff097          	auipc	ra,0xfffff
    80002ac4:	f78080e7          	jalr	-136(ra) # 80001a38 <myproc>
    80002ac8:	84aa                	mv	s1,a0
  p->trapframe->epc = r_sepc();
    80002aca:	713c                	ld	a5,96(a0)
  asm volatile("csrr %0, sepc" : "=r" (x) );
    80002acc:	14102773          	csrr	a4,sepc
    80002ad0:	ef98                	sd	a4,24(a5)
  asm volatile("csrr %0, scause" : "=r" (x) );
    80002ad2:	14202773          	csrr	a4,scause
  if(r_scause() == 8){
    80002ad6:	47a1                	li	a5,8
    80002ad8:	04f71c63          	bne	a4,a5,80002b30 <usertrap+0x92>
    if(p->killed)
    80002adc:	591c                	lw	a5,48(a0)
    80002ade:	e3b9                	bnez	a5,80002b24 <usertrap+0x86>
    p->trapframe->epc += 4;
    80002ae0:	70b8                	ld	a4,96(s1)
    80002ae2:	6f1c                	ld	a5,24(a4)
    80002ae4:	0791                	add	a5,a5,4
    80002ae6:	ef1c                	sd	a5,24(a4)
  asm volatile("csrr %0, sstatus" : "=r" (x) );
    80002ae8:	100027f3          	csrr	a5,sstatus
  w_sstatus(r_sstatus() | SSTATUS_SIE);
    80002aec:	0027e793          	or	a5,a5,2
  asm volatile("csrw sstatus, %0" : : "r" (x));
    80002af0:	10079073          	csrw	sstatus,a5
    syscall();
    80002af4:	00000097          	auipc	ra,0x0
    80002af8:	2e0080e7          	jalr	736(ra) # 80002dd4 <syscall>
  if(p->killed)
    80002afc:	589c                	lw	a5,48(s1)
    80002afe:	ebc1                	bnez	a5,80002b8e <usertrap+0xf0>
  usertrapret();
    80002b00:	00000097          	auipc	ra,0x0
    80002b04:	e14080e7          	jalr	-492(ra) # 80002914 <usertrapret>
}
    80002b08:	60e2                	ld	ra,24(sp)
    80002b0a:	6442                	ld	s0,16(sp)
    80002b0c:	64a2                	ld	s1,8(sp)
    80002b0e:	6902                	ld	s2,0(sp)
    80002b10:	6105                	add	sp,sp,32
    80002b12:	8082                	ret
    panic("usertrap: not from user mode");
    80002b14:	00006517          	auipc	a0,0x6
    80002b18:	84c50513          	add	a0,a0,-1972 # 80008360 <states.0+0x50>
    80002b1c:	ffffe097          	auipc	ra,0xffffe
    80002b20:	a26080e7          	jalr	-1498(ra) # 80000542 <panic>
      exit(-1);
    80002b24:	557d                	li	a0,-1
    80002b26:	00000097          	auipc	ra,0x0
    80002b2a:	848080e7          	jalr	-1976(ra) # 8000236e <exit>
    80002b2e:	bf4d                	j	80002ae0 <usertrap+0x42>
  } else if((which_dev = devintr()) != 0){
    80002b30:	00000097          	auipc	ra,0x0
    80002b34:	ec8080e7          	jalr	-312(ra) # 800029f8 <devintr>
    80002b38:	892a                	mv	s2,a0
    80002b3a:	c501                	beqz	a0,80002b42 <usertrap+0xa4>
  if(p->killed)
    80002b3c:	589c                	lw	a5,48(s1)
    80002b3e:	c3a1                	beqz	a5,80002b7e <usertrap+0xe0>
    80002b40:	a815                	j	80002b74 <usertrap+0xd6>
  asm volatile("csrr %0, scause" : "=r" (x) );
    80002b42:	142025f3          	csrr	a1,scause
    printf("usertrap(): unexpected scause %p pid=%d\n", r_scause(), p->pid);
    80002b46:	5c90                	lw	a2,56(s1)
    80002b48:	00006517          	auipc	a0,0x6
    80002b4c:	83850513          	add	a0,a0,-1992 # 80008380 <states.0+0x70>
    80002b50:	ffffe097          	auipc	ra,0xffffe
    80002b54:	a3c080e7          	jalr	-1476(ra) # 8000058c <printf>
  asm volatile("csrr %0, sepc" : "=r" (x) );
    80002b58:	141025f3          	csrr	a1,sepc
  asm volatile("csrr %0, stval" : "=r" (x) );
    80002b5c:	14302673          	csrr	a2,stval
    printf("            sepc=%p stval=%p\n", r_sepc(), r_stval());
    80002b60:	00006517          	auipc	a0,0x6
    80002b64:	85050513          	add	a0,a0,-1968 # 800083b0 <states.0+0xa0>
    80002b68:	ffffe097          	auipc	ra,0xffffe
    80002b6c:	a24080e7          	jalr	-1500(ra) # 8000058c <printf>
    p->killed = 1;
    80002b70:	4785                	li	a5,1
    80002b72:	d89c                	sw	a5,48(s1)
    exit(-1);
    80002b74:	557d                	li	a0,-1
    80002b76:	fffff097          	auipc	ra,0xfffff
    80002b7a:	7f8080e7          	jalr	2040(ra) # 8000236e <exit>
  if(which_dev == 2)
    80002b7e:	4789                	li	a5,2
    80002b80:	f8f910e3          	bne	s2,a5,80002b00 <usertrap+0x62>
    yield();
    80002b84:	00000097          	auipc	ra,0x0
    80002b88:	8f4080e7          	jalr	-1804(ra) # 80002478 <yield>
    80002b8c:	bf95                	j	80002b00 <usertrap+0x62>
  int which_dev = 0;
    80002b8e:	4901                	li	s2,0
    80002b90:	b7d5                	j	80002b74 <usertrap+0xd6>

0000000080002b92 <kerneltrap>:
{
    80002b92:	7179                	add	sp,sp,-48
    80002b94:	f406                	sd	ra,40(sp)
    80002b96:	f022                	sd	s0,32(sp)
    80002b98:	ec26                	sd	s1,24(sp)
    80002b9a:	e84a                	sd	s2,16(sp)
    80002b9c:	e44e                	sd	s3,8(sp)
    80002b9e:	1800                	add	s0,sp,48
  asm volatile("csrr %0, sepc" : "=r" (x) );
    80002ba0:	14102973          	csrr	s2,sepc
  asm volatile("csrr %0, sstatus" : "=r" (x) );
    80002ba4:	100024f3          	csrr	s1,sstatus
  asm volatile("csrr %0, scause" : "=r" (x) );
    80002ba8:	142029f3          	csrr	s3,scause
  if((sstatus & SSTATUS_SPP) == 0)
    80002bac:	1004f793          	and	a5,s1,256
    80002bb0:	cb85                	beqz	a5,80002be0 <kerneltrap+0x4e>
  asm volatile("csrr %0, sstatus" : "=r" (x) );
    80002bb2:	100027f3          	csrr	a5,sstatus
  return (x & SSTATUS_SIE) != 0;
    80002bb6:	8b89                	and	a5,a5,2
  if(intr_get() != 0)
    80002bb8:	ef85                	bnez	a5,80002bf0 <kerneltrap+0x5e>
  if((which_dev = devintr()) == 0){
    80002bba:	00000097          	auipc	ra,0x0
    80002bbe:	e3e080e7          	jalr	-450(ra) # 800029f8 <devintr>
    80002bc2:	cd1d                	beqz	a0,80002c00 <kerneltrap+0x6e>
  if(which_dev == 2 && myproc() != 0 && myproc()->state == RUNNING)
    80002bc4:	4789                	li	a5,2
    80002bc6:	06f50a63          	beq	a0,a5,80002c3a <kerneltrap+0xa8>
  asm volatile("csrw sepc, %0" : : "r" (x));
    80002bca:	14191073          	csrw	sepc,s2
  asm volatile("csrw sstatus, %0" : : "r" (x));
    80002bce:	10049073          	csrw	sstatus,s1
}
    80002bd2:	70a2                	ld	ra,40(sp)
    80002bd4:	7402                	ld	s0,32(sp)
    80002bd6:	64e2                	ld	s1,24(sp)
    80002bd8:	6942                	ld	s2,16(sp)
    80002bda:	69a2                	ld	s3,8(sp)
    80002bdc:	6145                	add	sp,sp,48
    80002bde:	8082                	ret
    panic("kerneltrap: not from supervisor mode");
    80002be0:	00005517          	auipc	a0,0x5
    80002be4:	7f050513          	add	a0,a0,2032 # 800083d0 <states.0+0xc0>
    80002be8:	ffffe097          	auipc	ra,0xffffe
    80002bec:	95a080e7          	jalr	-1702(ra) # 80000542 <panic>
    panic("kerneltrap: interrupts enabled");
    80002bf0:	00006517          	auipc	a0,0x6
    80002bf4:	80850513          	add	a0,a0,-2040 # 800083f8 <states.0+0xe8>
    80002bf8:	ffffe097          	auipc	ra,0xffffe
    80002bfc:	94a080e7          	jalr	-1718(ra) # 80000542 <panic>
    printf("scause %p\n", scause);
    80002c00:	85ce                	mv	a1,s3
    80002c02:	00006517          	auipc	a0,0x6
    80002c06:	81650513          	add	a0,a0,-2026 # 80008418 <states.0+0x108>
    80002c0a:	ffffe097          	auipc	ra,0xffffe
    80002c0e:	982080e7          	jalr	-1662(ra) # 8000058c <printf>
  asm volatile("csrr %0, sepc" : "=r" (x) );
    80002c12:	141025f3          	csrr	a1,sepc
  asm volatile("csrr %0, stval" : "=r" (x) );
    80002c16:	14302673          	csrr	a2,stval
    printf("sepc=%p stval=%p\n", r_sepc(), r_stval());
    80002c1a:	00006517          	auipc	a0,0x6
    80002c1e:	80e50513          	add	a0,a0,-2034 # 80008428 <states.0+0x118>
    80002c22:	ffffe097          	auipc	ra,0xffffe
    80002c26:	96a080e7          	jalr	-1686(ra) # 8000058c <printf>
    panic("kerneltrap");
    80002c2a:	00006517          	auipc	a0,0x6
